(lp0
I-33962
aI-28961
aI-28878
aI-27625
aI-21518
aI-20488
aI-17282
aI-17230
aI-15454
aI-13444
aI-12623
aI-10928
aI-9829
aI-8648
aI-8315
aI-8101
aI-7637
aI-6046
aI-4667
aI-4592
aI-3707
aI-3637
aI-3263
aI-3177
aI-2479
aI-2072
aI-1418
aI-896
aI-742
aI-257
aI-89
aI0
aI3
aI4
aI5
aI6
aI7
aI8
aI9
aI10
aI11
aI12
aI13
aI15
aI16
aI18
aI20
aI22
aI25
aI28
aI30
aI31
aI32
aI35
aI37
aI38
aI39
aI40
aI42
aI43
aI44
aI50
aI51
aI53
aI54
aI55
aI58
aI59
aI60
aI62
aI64
aI65
aI69
aI70
aI72
aI74
aI75
aI76
aI79
aI80
aI82
aI83
aI93
aI97
aI99
aI100
aI105
aI107
aI108
aI110
aI116
aI118
aI122
aI125
aI130
aI139
aI140
aI146
aI147
aI149
aI150
aI160
aI163
aI164
aI165
aI167
aI170
aI173
aI187
aI195
aI196
aI200
aI210
aI215
aI225
aI232
aI240
aI243
aI246
aI250
aI260
aI264
aI266
aI271
aI275
aI280
aI281
aI300
aI315
aI325
aI327
aI328
aI335
aI336
aI337
aI340
aI346
aI350
aI360
aI367
aI375
aI379
aI381
aI384
aI386
aI400
aI413
aI420
aI436
aI448
aI450
aI455
aI458
aI460
aI470
aI475
aI480
aI490
aI500
aI501
aI503
aI504
aI505
aI510
aI512
aI516
aI520
aI525
aI536
aI540
aI550
aI560
aI565
aI566
aI588
aI592
aI594
aI596
aI600
aI604
aI615
aI625
aI626
aI640
aI650
aI658
aI660
aI663
aI676
aI678
aI680
aI689
aI700
aI717
aI719
aI720
aI725
aI726
aI735
aI740
aI747
aI748
aI750
aI751
aI762
aI766
aI768
aI775
aI778
aI779
aI780
aI781
aI792
aI800
aI801
aI802
aI818
aI820
aI825
aI828
aI830
aI840
aI846
aI850
aI851
aI859
aI870
aI873
aI878
aI888
aI890
aI893
aI900
aI906
aI912
aI924
aI930
aI932
aI938
aI940
aI942
aI943
aI945
aI950
aI952
aI960
aI961
aI963
aI967
aI970
aI975
aI980
aI992
aI997
aI1000
aI1004
aI1019
aI1020
aI1022
aI1025
aI1028
aI1032
aI1034
aI1040
aI1050
aI1056
aI1074
aI1080
aI1083
aI1095
aI1099
aI1100
aI1111
aI1113
aI1116
aI1120
aI1124
aI1125
aI1133
aI1144
aI1145
aI1150
aI1156
aI1160
aI1170
aI1172
aI1190
aI1198
aI1200
aI1203
aI1215
aI1226
aI1230
aI1236
aI1250
aI1251
aI1259
aI1260
aI1261
aI1267
aI1280
aI1294
aI1296
aI1300
aI1302
aI1312
aI1319
aI1320
aI1324
aI1333
aI1339
aI1344
aI1350
aI1353
aI1360
aI1363
aI1367
aI1368
aI1374
aI1393
aI1400
aI1402
aI1404
aI1406
aI1410
aI1418
aI1420
aI1423
aI1436
aI1439
aI1440
aI1442
aI1444
aI1448
aI1450
aI1452
aI1457
aI1470
aI1475
aI1480
aI1482
aI1487
aI1500
aI1511
aI1512
aI1515
aI1517
aI1520
aI1522
aI1525
aI1526
aI1533
aI1550
aI1558
aI1560
aI1584
aI1592
aI1596
aI1600
aI1605
aI1608
aI1617
aI1620
aI1627
aI1637
aI1642
aI1651
aI1654
aI1660
aI1680
aI1700
aI1703
aI1709
aI1710
aI1718
aI1730
aI1737
aI1741
aI1750
aI1752
aI1753
aI1760
aI1764
aI1767
aI1775
aI1776
aI1789
aI1790
aI1794
aI1800
aI1810
aI1819
aI1820
aI1824
aI1836
aI1845
aI1875
aI1876
aI1884
aI1889
aI1890
aI1895
aI1900
aI1904
aI1910
aI1913
aI1915
aI1920
aI1926
aI1930
aI1932
aI1954
aI1975
aI1980
aI1984
aI1985
aI1993
aI1994
aI2000
aI2009
aI2010
aI2012
aI2013
aI2016
aI2036
aI2050
aI2055
aI2060
aI2064
aI2067
aI2080
aI2092
aI2096
aI2098
aI2100
aI2101
aI2104
aI2115
aI2125
aI2142
aI2144
aI2145
aI2151
aI2160
aI2162
aI2178
aI2200
aI2215
aI2221
aI2236
aI2240
aI2250
aI2252
aI2259
aI2265
aI2278
aI2300
aI2301
aI2310
aI2325
aI2331
aI2340
aI2348
aI2352
aI2360
aI2363
aI2374
aI2383
aI2386
aI2400
aI2402
aI2412
aI2415
aI2416
aI2427
aI2434
aI2449
aI2460
aI2466
aI2474
aI2480
aI2489
aI2490
aI2498
aI2500
aI2508
aI2520
aI2524
aI2540
aI2541
aI2547
aI2558
aI2565
aI2583
aI2592
aI2596
aI2600
aI2603
aI2610
aI2621
aI2626
aI2630
aI2640
aI2648
aI2656
aI2660
aI2661
aI2666
aI2667
aI2672
aI2687
aI2699
aI2700
aI2704
aI2715
aI2716
aI2722
aI2725
aI2727
aI2730
aI2743
aI2748
aI2750
aI2754
aI2760
aI2761
aI2767
aI2772
aI2800
aI2803
aI2808
aI2819
aI2820
aI2825
aI2826
aI2832
aI2834
aI2847
aI2852
aI2868
aI2869
aI2878
aI2880
aI2884
aI2895
aI2900
aI2906
aI2912
aI2916
aI2925
aI2933
aI2949
aI2950
aI2951
aI2956
aI2964
aI2967
aI2974
aI3000
aI3008
aI3012
aI3017
aI3020
aI3035
aI3050
aI3055
aI3056
aI3057
aI3060
aI3066
aI3067
aI3071
aI3075
aI3080
aI3096
aI3100
aI3101
aI3104
aI3107
aI3110
aI3112
aI3119
aI3120
aI3122
aI3125
aI3126
aI3132
aI3136
aI3139
aI3141
aI3144
aI3146
aI3150
aI3151
aI3161
aI3167
aI3199
aI3200
aI3203
aI3210
aI3216
aI3240
aI3250
aI3258
aI3263
aI3267
aI3270
aI3276
aI3280
aI3284
aI3296
aI3298
aI3300
aI3308
aI3310
aI3323
aI3330
aI3332
aI3335
aI3341
aI3342
aI3346
aI3350
aI3357
aI3360
aI3366
aI3372
aI3380
aI3384
aI3385
aI3387
aI3389
aI3391
aI3399
aI3400
aI3402
aI3405
aI3406
aI3410
aI3416
aI3420
aI3427
aI3432
aI3450
aI3451
aI3461
aI3465
aI3468
aI3480
aI3485
aI3486
aI3500
aI3523
aI3525
aI3535
aI3550
aI3553
aI3559
aI3566
aI3568
aI3575
aI3577
aI3582
aI3588
aI3600
aI3601
aI3616
aI3640
aI3642
aI3644
aI3645
aI3651
aI3660
aI3670
aI3672
aI3684
aI3691
aI3695
aI3724
aI3740
aI3741
aI3743
aI3744
aI3750
aI3758
aI3774
aI3780
aI3783
aI3787
aI3792
aI3795
aI3800
aI3801
aI3805
aI3810
aI3813
aI3816
aI3840
aI3841
aI3850
aI3853
aI3860
aI3866
aI3870
aI3872
aI3893
aI3894
aI3900
aI3907
aI3910
aI3912
aI3913
aI3925
aI3926
aI3936
aI3947
aI3950
aI3952
aI3967
aI3969
aI3972
aI3982
aI3988
aI3990
aI3996
aI4000
aI4008
aI4010
aI4014
aI4017
aI4020
aI4027
aI4030
aI4033
aI4044
aI4050
aI4060
aI4064
aI4066
aI4070
aI4075
aI4077
aI4095
aI4098
aI4100
aI4109
aI4113
aI4114
aI4118
aI4123
aI4124
aI4140
aI4145
aI4160
aI4163
aI4176
aI4200
aI4206
aI4212
aI4223
aI4234
aI4242
aI4250
aI4260
aI4262
aI4280
aI4281
aI4286
aI4293
aI4296
aI4300
aI4323
aI4326
aI4329
aI4330
aI4344
aI4345
aI4352
aI4356
aI4372
aI4375
aI4380
aI4384
aI4389
aI4392
aI4400
aI4404
aI4408
aI4416
aI4420
aI4426
aI4430
aI4441
aI4452
aI4455
aI4456
aI4460
aI4461
aI4463
aI4480
aI4486
aI4496
aI4500
aI4503
aI4510
aI4512
aI4523
aI4524
aI4530
aI4531
aI4532
aI4536
aI4545
aI4550
aI4553
aI4555
aI4560
aI4563
aI4574
aI4599
aI4600
aI4620
aI4624
aI4625
aI4632
aI4636
aI4638
aI4645
aI4680
aI4692
aI4700
aI4703
aI4712
aI4716
aI4725
aI4729
aI4732
aI4738
aI4743
aI4750
aI4752
aI4753
aI4757
aI4760
aI4767
aI4774
aI4796
aI4800
aI4802
aI4804
aI4820
aI4824
aI4830
aI4833
aI4836
aI4838
aI4839
aI4848
aI4850
aI4862
aI4867
aI4870
aI4890
aI4894
aI4895
aI4899
aI4907
aI4913
aI4914
aI4918
aI4920
aI4923
aI4946
aI4950
aI4954
aI4959
aI4960
aI4985
aI4991
aI4992
aI4993
aI4995
aI4997
aI5000
aI5011
aI5017
aI5028
aI5030
aI5039
aI5040
aI5043
aI5050
aI5053
aI5060
aI5066
aI5068
aI5075
aI5088
aI5093
aI5096
aI5100
aI5107
aI5113
aI5120
aI5122
aI5123
aI5135
aI5154
aI5160
aI5163
aI5166
aI5167
aI5170
aI5187
aI5190
aI5194
aI5200
aI5203
aI5208
aI5216
aI5220
aI5225
aI5230
aI5238
aI5242
aI5250
aI5259
aI5265
aI5273
aI5279
aI5280
aI5287
aI5291
aI5293
aI5300
aI5302
aI5304
aI5305
aI5316
aI5318
aI5320
aI5328
aI5330
aI5342
aI5348
aI5352
aI5356
aI5364
aI5371
aI5380
aI5382
aI5384
aI5390
aI5400
aI5404
aI5408
aI5424
aI5425
aI5440
aI5441
aI5443
aI5454
aI5460
aI5472
aI5480
aI5481
aI5483
aI5496
aI5498
aI5500
aI5503
aI5506
aI5510
aI5512
aI5520
aI5526
aI5531
aI5550
aI5562
aI5564
aI5569
aI5576
aI5584
aI5585
aI5588
aI5592
aI5593
aI5596
aI5598
aI5600
aI5609
aI5610
aI5613
aI5616
aI5625
aI5636
aI5638
aI5640
aI5650
aI5655
aI5667
aI5686
aI5688
aI5692
aI5693
aI5694
aI5700
aI5706
aI5714
aI5720
aI5740
aI5744
aI5746
aI5748
aI5750
aI5753
aI5760
aI5762
aI5767
aI5769
aI5790
aI5793
aI5796
aI5800
aI5805
aI5808
aI5844
aI5850
aI5858
aI5868
aI5880
aI5900
aI5902
aI5904
aI5906
aI5910
aI5925
aI5940
aI5948
aI5952
aI5972
aI5976
aI5980
aI5991
aI5995
aI6000
aI6001
aI6009
aI6014
aI6016
aI6020
aI6023
aI6030
aI6032
aI6033
aI6034
aI6036
aI6041
aI6042
aI6044
aI6048
aI6050
aI6061
aI6064
aI6066
aI6068
aI6080
aI6084
aI6090
aI6092
aI6097
aI6100
aI6106
aI6120
aI6132
aI6138
aI6139
aI6147
aI6150
aI6168
aI6180
aI6188
aI6199
aI6200
aI6210
aI6216
aI6222
aI6223
aI6232
aI6236
aI6237
aI6240
aI6250
aI6252
aI6255
aI6260
aI6261
aI6288
aI6293
aI6300
aI6309
aI6310
aI6312
aI6318
aI6324
aI6325
aI6333
aI6335
aI6345
aI6350
aI6357
aI6358
aI6360
aI6361
aI6368
aI6381
aI6384
aI6386
aI6390
aI6394
aI6396
aI6400
aI6408
aI6412
aI6414
aI6416
aI6419
aI6420
aI6421
aI6430
aI6431
aI6435
aI6456
aI6460
aI6464
aI6468
aI6469
aI6472
aI6480
aI6492
aI6494
aI6498
aI6500
aI6501
aI6511
aI6517
aI6520
aI6528
aI6530
aI6540
aI6552
aI6556
aI6560
aI6562
aI6564
aI6574
aI6588
aI6594
aI6600
aI6603
aI6608
aI6610
aI6612
aI6618
aI6620
aI6636
aI6643
aI6647
aI6653
aI6656
aI6660
aI6667
aI6676
aI6677
aI6684
aI6695
aI6700
aI6708
aI6714
aI6720
aI6724
aI6725
aI6732
aI6736
aI6744
aI6745
aI6746
aI6750
aI6756
aI6757
aI6758
aI6760
aI6771
aI6775
aI6780
aI6784
aI6786
aI6788
aI6791
aI6792
aI6798
aI6800
aI6803
aI6816
aI6820
aI6825
aI6828
aI6832
aI6833
aI6840
aI6847
aI6850
aI6851
aI6854
aI6856
aI6878
aI6881
aI6882
aI6888
aI6891
aI6898
aI6900
aI6910
aI6912
aI6914
aI6917
aI6918
aI6921
aI6924
aI6936
aI6940
aI6944
aI6948
aI6953
aI6960
aI6967
aI6974
aI6983
aI6995
aI6996
aI7000
aI7004
aI7008
aI7010
aI7020
aI7024
aI7025
aI7031
aI7032
aI7045
aI7050
aI7056
aI7061
aI7063
aI7068
aI7072
aI7078
aI7080
aI7088
aI7092
aI7094
aI7095
aI7096
aI7099
aI7100
aI7102
aI7116
aI7128
aI7131
aI7140
aI7141
aI7148
aI7152
aI7155
aI7157
aI7160
aI7164
aI7176
aI7185
aI7188
aI7190
aI7191
aI7194
aI7200
aI7204
aI7208
aI7210
aI7212
aI7219
aI7224
aI7225
aI7228
aI7235
aI7236
aI7239
aI7240
aI7246
aI7248
aI7250
aI7253
aI7254
aI7260
aI7268
aI7272
aI7274
aI7277
aI7278
aI7280
aI7281
aI7284
aI7289
aI7290
aI7300
aI7308
aI7309
aI7310
aI7314
aI7320
aI7324
aI7325
aI7332
aI7333
aI7339
aI7350
aI7359
aI7360
aI7365
aI7366
aI7368
aI7369
aI7375
aI7382
aI7392
aI7398
aI7400
aI7403
aI7404
aI7416
aI7420
aI7428
aI7430
aI7440
aI7444
aI7450
aI7452
aI7464
aI7467
aI7476
aI7480
aI7498
aI7500
aI7501
aI7512
aI7515
aI7517
aI7520
aI7523
aI7525
aI7533
aI7534
aI7535
aI7536
aI7540
aI7550
aI7552
aI7554
aI7557
aI7558
aI7560
aI7563
aI7569
aI7580
aI7592
aI7600
aI7602
aI7607
aI7620
aI7623
aI7624
aI7627
aI7629
aI7631
aI7644
aI7648
aI7650
aI7654
aI7656
aI7659
aI7662
aI7663
aI7665
aI7667
aI7668
aI7671
aI7680
aI7692
aI7698
aI7700
aI7703
aI7705
aI7726
aI7728
aI7732
aI7736
aI7740
aI7742
aI7749
aI7750
aI7751
aI7752
aI7756
aI7760
aI7767
aI7776
aI7781
aI7788
aI7800
aI7810
aI7816
aI7817
aI7823
aI7830
aI7836
aI7860
aI7872
aI7875
aI7886
aI7887
aI7892
aI7893
aI7894
aI7898
aI7900
aI7903
aI7910
aI7915
aI7920
aI7921
aI7928
aI7931
aI7933
aI7942
aI7952
aI7955
aI7956
aI7959
aI7964
aI7968
aI7970
aI7980
aI7984
aI7996
aI7998
aI8000
aI8003
aI8004
aI8010
aI8011
aI8016
aI8020
aI8022
aI8025
aI8028
aI8030
aI8033
aI8036
aI8039
aI8047
aI8050
aI8051
aI8055
aI8068
aI8070
aI8072
aI8073
aI8088
aI8100
aI8120
aI8125
aI8132
aI8133
aI8135
aI8136
aI8148
aI8150
aI8156
aI8159
aI8160
aI8165
aI8168
aI8174
aI8185
aI8186
aI8189
aI8196
aI8198
aI8200
aI8203
aI8206
aI8207
aI8208
aI8213
aI8220
aI8232
aI8234
aI8236
aI8240
aI8245
aI8247
aI8250
aI8252
aI8259
aI8260
aI8268
aI8280
aI8281
aI8288
aI8291
aI8292
aI8300
aI8306
aI8316
aI8318
aI8320
aI8323
aI8329
aI8333
aI8340
aI8344
aI8347
aI8352
aI8355
aI8356
aI8360
aI8361
aI8368
aI8372
aI8381
aI8390
aI8400
aI8401
aI8403
aI8412
aI8416
aI8423
aI8424
aI8434
aI8435
aI8450
aI8454
aI8458
aI8473
aI8478
aI8487
aI8489
aI8492
aI8496
aI8497
aI8500
aI8507
aI8509
aI8511
aI8519
aI8520
aI8525
aI8528
aI8529
aI8532
aI8534
aI8541
aI8544
aI8548
aI8550
aI8558
aI8560
aI8563
aI8568
aI8576
aI8582
aI8586
aI8588
aI8592
aI8599
aI8600
aI8614
aI8625
aI8640
aI8647
aI8649
aI8654
aI8656
aI8660
aI8662
aI8669
aI8677
aI8690
aI8698
aI8700
aI8706
aI8712
aI8713
aI8716
aI8724
aI8731
aI8740
aI8745
aI8750
aI8751
aI8758
aI8760
aI8762
aI8765
aI8773
aI8775
aI8778
aI8800
aI8807
aI8820
aI8824
aI8830
aI8835
aI8840
aI8844
aI8847
aI8848
aI8856
aI8864
aI8868
aI8885
aI8900
aI8901
aI8905
aI8906
aI8910
aI8912
aI8918
aI8920
aI8922
aI8923
aI8928
aI8940
aI8951
aI8958
aI8960
aI8962
aI8966
aI8970
aI8971
aI8980
aI8982
aI8984
aI9000
aI9006
aI9013
aI9014
aI9018
aI9028
aI9035
aI9044
aI9048
aI9050
aI9053
aI9055
aI9060
aI9068
aI9079
aI9080
aI9082
aI9083
aI9089
aI9095
aI9096
aI9099
aI9100
aI9108
aI9110
aI9116
aI9117
aI9124
aI9125
aI9126
aI9128
aI9129
aI9130
aI9135
aI9137
aI9144
aI9150
aI9153
aI9155
aI9156
aI9175
aI9180
aI9182
aI9200
aI9204
aI9221
aI9228
aI9237
aI9240
aI9250
aI9254
aI9256
aI9259
aI9263
aI9264
aI9271
aI9275
aI9276
aI9288
aI9300
aI9304
aI9308
aI9312
aI9324
aI9336
aI9349
aI9353
aI9356
aI9357
aI9358
aI9360
aI9362
aI9369
aI9370
aI9400
aI9409
aI9411
aI9413
aI9415
aI9417
aI9418
aI9427
aI9430
aI9435
aI9442
aI9443
aI9445
aI9448
aI9450
aI9452
aI9457
aI9458
aI9459
aI9462
aI9464
aI9465
aI9468
aI9473
aI9474
aI9475
aI9478
aI9480
aI9488
aI9490
aI9494
aI9496
aI9500
aI9501
aI9502
aI9505
aI9511
aI9512
aI9516
aI9531
aI9542
aI9544
aI9550
aI9553
aI9561
aI9567
aI9568
aI9570
aI9572
aI9575
aI9576
aI9592
aI9594
aI9595
aI9599
aI9600
aI9605
aI9620
aI9625
aI9627
aI9636
aI9640
aI9641
aI9642
aI9650
aI9660
aI9667
aI9674
aI9675
aI9676
aI9681
aI9683
aI9688
aI9691
aI9695
aI9700
aI9702
aI9704
aI9713
aI9718
aI9725
aI9726
aI9740
aI9744
aI9750
aI9766
aI9774
aI9775
aI9776
aI9779
aI9780
aI9781
aI9788
aI9800
aI9803
aI9810
aI9816
aI9817
aI9819
aI9820
aI9824
aI9833
aI9839
aI9840
aI9842
aI9850
aI9860
aI9880
aI9883
aI9886
aI9887
aI9888
aI9900
aI9906
aI9920
aI9924
aI9926
aI9928
aI9935
aI9936
aI9950
aI9961
aI9966
aI9969
aI9982
aI9993
aI9997
aI9999
aI10000
aI10005
aI10006
aI10008
aI10010
aI10011
aI10012
aI10016
aI10017
aI10020
aI10031
aI10033
aI10034
aI10040
aI10042
aI10045
aI10050
aI10053
aI10054
aI10060
aI10070
aI10080
aI10084
aI10087
aI10088
aI10096
aI10100
aI10107
aI10114
aI10116
aI10120
aI10128
aI10130
aI10136
aI10140
aI10143
aI10150
aI10153
aI10158
aI10160
aI10164
aI10167
aI10174
aI10180
aI10185
aI10187
aI10188
aI10192
aI10194
aI10196
aI10200
aI10202
aI10210
aI10213
aI10218
aI10221
aI10232
aI10248
aI10250
aI10254
aI10260
aI10265
aI10267
aI10271
aI10272
aI10279
aI10281
aI10284
aI10287
aI10290
aI10296
aI10300
aI10310
aI10317
aI10320
aI10322
aI10326
aI10328
aI10335
aI10336
aI10339
aI10344
aI10346
aI10348
aI10350
aI10354
aI10370
aI10371
aI10373
aI10375
aI10378
aI10380
aI10382
aI10389
aI10390
aI10391
aI10392
aI10396
aI10398
aI10400
aI10406
aI10416
aI10422
aI10434
aI10437
aI10440
aI10446
aI10450
aI10462
aI10465
aI10468
aI10469
aI10470
aI10480
aI10482
aI10484
aI10488
aI10494
aI10495
aI10500
aI10502
aI10516
aI10519
aI10521
aI10523
aI10525
aI10535
aI10536
aI10540
aI10547
aI10555
aI10560
aI10571
aI10572
aI10573
aI10585
aI10600
aI10604
aI10616
aI10619
aI10625
aI10628
aI10635
aI10640
aI10644
aI10647
aI10648
aI10650
aI10652
aI10655
aI10659
aI10667
aI10672
aI10676
aI10680
aI10690
aI10692
aI10700
aI10708
aI10711
aI10712
aI10713
aI10723
aI10728
aI10729
aI10743
aI10748
aI10750
aI10752
aI10754
aI10755
aI10757
aI10761
aI10764
aI10771
aI10776
aI10777
aI10780
aI10782
aI10784
aI10795
aI10800
aI10801
aI10806
aI10807
aI10815
aI10816
aI10824
aI10832
aI10833
aI10840
aI10841
aI10842
aI10843
aI10846
aI10850
aI10865
aI10874
aI10880
aI10884
aI10885
aI10886
aI10890
aI10891
aI10892
aI10900
aI10904
aI10907
aI10908
aI10910
aI10915
aI10918
aI10920
aI10922
aI10945
aI10950
aI10953
aI10962
aI10971
aI10976
aI10978
aI10987
aI10990
aI10994
aI10997
aI10999
aI11000
aI11003
aI11005
aI11010
aI11020
aI11024
aI11035
aI11040
aI11047
aI11050
aI11054
aI11056
aI11057
aI11060
aI11064
aI11066
aI11068
aI11076
aI11078
aI11081
aI11092
aI11096
aI11100
aI11102
aI11106
aI11107
aI11109
aI11111
aI11115
aI11119
aI11124
aI11128
aI11129
aI11134
aI11140
aI11150
aI11152
aI11154
aI11157
aI11164
aI11179
aI11181
aI11182
aI11190
aI11194
aI11196
aI11200
aI11212
aI11222
aI11223
aI11224
aI11225
aI11237
aI11240
aI11250
aI11252
aI11256
aI11261
aI11264
aI11276
aI11280
aI11292
aI11293
aI11300
aI11304
aI11308
aI11310
aI11313
aI11323
aI11328
aI11332
aI11333
aI11335
aI11338
aI11340
aI11345
aI11350
aI11352
aI11354
aI11360
aI11370
aI11375
aI11388
aI11389
aI11392
aI11400
aI11403
aI11415
aI11419
aI11421
aI11424
aI11430
aI11440
aI11443
aI11446
aI11450
aI11452
aI11458
aI11475
aI11480
aI11486
aI11492
aI11499
aI11500
aI11502
aI11504
aI11505
aI11510
aI11520
aI11524
aI11530
aI11532
aI11535
aI11536
aI11540
aI11541
aI11542
aI11544
aI11550
aI11553
aI11554
aI11560
aI11564
aI11575
aI11579
aI11582
aI11586
aI11589
aI11593
aI11594
aI11600
aI11610
aI11611
aI11614
aI11618
aI11619
aI11620
aI11623
aI11629
aI11639
aI11640
aI11645
aI11648
aI11650
aI11654
aI11656
aI11659
aI11665
aI11667
aI11676
aI11677
aI11680
aI11681
aI11685
aI11688
aI11696
aI11700
aI11701
aI11707
aI11710
aI11711
aI11715
aI11721
aI11729
aI11736
aI11750
aI11751
aI11758
aI11760
aI11763
aI11767
aI11772
aI11780
aI11783
aI11786
aI11789
aI11800
aI11802
aI11805
aI11806
aI11813
aI11814
aI11829
aI11832
aI11835
aI11836
aI11847
aI11856
aI11860
aI11863
aI11866
aI11875
aI11880
aI11881
aI11884
aI11888
aI11892
aI11894
aI11900
aI11904
aI11910
aI11912
aI11924
aI11925
aI11930
aI11935
aI11940
aI11950
aI11958
aI11960
aI11964
aI11970
aI11980
aI11986
aI11990
aI11993
aI11995
aI11997
aI12000
aI12003
aI12004
aI12005
aI12009
aI12010
aI12011
aI12012
aI12016
aI12021
aI12024
aI12025
aI12030
aI12031
aI12032
aI12034
aI12036
aI12037
aI12040
aI12048
aI12050
aI12052
aI12055
aI12056
aI12064
aI12070
aI12085
aI12090
aI12100
aI12103
aI12111
aI12112
aI12114
aI12120
aI12124
aI12125
aI12132
aI12140
aI12149
aI12150
aI12154
aI12160
aI12168
aI12180
aI12184
aI12188
aI12190
aI12191
aI12194
aI12200
aI12207
aI12210
aI12219
aI12220
aI12222
aI12230
aI12235
aI12236
aI12237
aI12240
aI12246
aI12250
aI12254
aI12255
aI12260
aI12263
aI12264
aI12267
aI12268
aI12272
aI12273
aI12280
aI12285
aI12286
aI12300
aI12308
aI12310
aI12311
aI12316
aI12317
aI12318
aI12319
aI12320
aI12322
aI12331
aI12339
aI12340
aI12345
aI12350
aI12355
aI12365
aI12372
aI12375
aI12381
aI12382
aI12383
aI12392
aI12396
aI12398
aI12399
aI12400
aI12404
aI12408
aI12414
aI12425
aI12428
aI12430
aI12433
aI12434
aI12436
aI12438
aI12447
aI12450
aI12460
aI12461
aI12468
aI12480
aI12487
aI12488
aI12490
aI12491
aI12495
aI12496
aI12499
aI12500
aI12502
aI12503
aI12505
aI12509
aI12511
aI12515
aI12520
aI12523
aI12528
aI12530
aI12535
aI12540
aI12541
aI12548
aI12550
aI12560
aI12561
aI12564
aI12569
aI12570
aI12571
aI12588
aI12589
aI12597
aI12600
aI12608
aI12609
aI12617
aI12624
aI12633
aI12641
aI12644
aI12648
aI12649
aI12650
aI12653
aI12654
aI12660
aI12664
aI12667
aI12668
aI12675
aI12678
aI12679
aI12685
aI12686
aI12690
aI12693
aI12694
aI12700
aI12713
aI12729
aI12730
aI12732
aI12740
aI12750
aI12759
aI12760
aI12766
aI12774
aI12779
aI12785
aI12787
aI12792
aI12799
aI12800
aI12804
aI12815
aI12816
aI12839
aI12841
aI12842
aI12843
aI12847
aI12852
aI12855
aI12858
aI12870
aI12872
aI12880
aI12887
aI12888
aI12891
aI12892
aI12896
aI12900
aI12909
aI12912
aI12915
aI12924
aI12927
aI12934
aI12937
aI12938
aI12945
aI12948
aI12960
aI12975
aI12978
aI12980
aI12987
aI12991
aI13000
aI13004
aI13005
aI13006
aI13007
aI13011
aI13015
aI13020
aI13021
aI13025
aI13033
aI13035
aI13037
aI13038
aI13050
aI13054
aI13055
aI13063
aI13075
aI13078
aI13080
aI13086
aI13100
aI13104
aI13107
aI13126
aI13127
aI13131
aI13140
aI13141
aI13147
aI13148
aI13154
aI13156
aI13160
aI13169
aI13170
aI13182
aI13186
aI13193
aI13200
aI13211
aI13212
aI13213
aI13218
aI13219
aI13221
aI13224
aI13226
aI13230
aI13232
aI13245
aI13246
aI13247
aI13250
aI13260
aI13268
aI13270
aI13271
aI13272
aI13275
aI13283
aI13300
aI13304
aI13306
aI13308
aI13316
aI13318
aI13320
aI13325
aI13328
aI13333
aI13337
aI13338
aI13348
aI13354
aI13357
aI13364
aI13365
aI13367
aI13374
aI13375
aI13378
aI13381
aI13384
aI13392
aI13397
aI13399
aI13400
aI13405
aI13413
aI13414
aI13417
aI13428
aI13429
aI13430
aI13436
aI13440
aI13448
aI13450
aI13456
aI13462
aI13468
aI13472
aI13476
aI13477
aI13486
aI13488
aI13495
aI13496
aI13498
aI13499
aI13500
aI13504
aI13506
aI13520
aI13523
aI13524
aI13525
aI13536
aI13548
aI13550
aI13556
aI13561
aI13562
aI13572
aI13575
aI13580
aI13592
aI13594
aI13596
aI13599
aI13600
aI13606
aI13612
aI13621
aI13622
aI13625
aI13630
aI13632
aI13636
aI13640
aI13657
aI13659
aI13668
aI13675
aI13680
aI13688
aI13700
aI13702
aI13704
aI13712
aI13714
aI13719
aI13725
aI13728
aI13736
aI13745
aI13750
aI13759
aI13762
aI13763
aI13769
aI13776
aI13782
aI13783
aI13786
aI13795
aI13800
aI13811
aI13813
aI13814
aI13820
aI13824
aI13832
aI13836
aI13838
aI13840
aI13850
aI13856
aI13857
aI13861
aI13872
aI13875
aI13884
aI13887
aI13896
aI13898
aI13901
aI13903
aI13908
aI13912
aI13916
aI13933
aI13936
aI13941
aI13960
aI13967
aI13969
aI13970
aI13976
aI13978
aI13980
aI13986
aI13988
aI13991
aI14000
aI14005
aI14006
aI14016
aI14020
aI14022
aI14024
aI14028
aI14035
aI14040
aI14042
aI14043
aI14049
aI14050
aI14053
aI14062
aI14078
aI14080
aI14094
aI14100
aI14101
aI14107
aI14136
aI14143
aI14148
aI14150
aI14153
aI14159
aI14160
aI14162
aI14164
aI14166
aI14170
aI14175
aI14178
aI14181
aI14194
aI14195
aI14198
aI14200
aI14213
aI14218
aI14220
aI14242
aI14248
aI14250
aI14255
aI14259
aI14260
aI14263
aI14268
aI14271
aI14273
aI14280
aI14285
aI14290
aI14292
aI14294
aI14300
aI14306
aI14310
aI14318
aI14321
aI14327
aI14331
aI14340
aI14344
aI14345
aI14361
aI14374
aI14377
aI14380
aI14393
aI14398
aI14400
aI14413
aI14418
aI14420
aI14425
aI14434
aI14435
aI14438
aI14440
aI14450
aI14454
aI14456
aI14460
aI14462
aI14465
aI14470
aI14471
aI14472
aI14482
aI14484
aI14486
aI14490
aI14497
aI14500
aI14508
aI14512
aI14519
aI14520
aI14521
aI14523
aI14545
aI14550
aI14551
aI14553
aI14555
aI14556
aI14558
aI14560
aI14564
aI14569
aI14570
aI14574
aI14578
aI14584
aI14585
aI14595
aI14600
aI14630
aI14635
aI14641
aI14644
aI14646
aI14647
aI14650
aI14651
aI14652
aI14658
aI14666
aI14667
aI14670
aI14674
aI14675
aI14676
aI14677
aI14695
aI14700
aI14704
aI14710
aI14716
aI14717
aI14720
aI14726
aI14730
aI14738
aI14740
aI14743
aI14746
aI14747
aI14758
aI14760
aI14768
aI14777
aI14778
aI14780
aI14787
aI14789
aI14799
aI14800
aI14804
aI14811
aI14812
aI14814
aI14815
aI14820
aI14823
aI14825
aI14833
aI14848
aI14850
aI14852
aI14855
aI14856
aI14862
aI14884
aI14891
aI14892
aI14900
aI14902
aI14910
aI14911
aI14916
aI14918
aI14926
aI14950
aI14951
aI14976
aI14979
aI14984
aI14988
aI14994
aI14996
aI15000
aI15005
aI15010
aI15013
aI15018
aI15020
aI15025
aI15026
aI15032
aI15037
aI15038
aI15041
aI15045
aI15048
aI15050
aI15053
aI15055
aI15057
aI15059
aI15062
aI15068
aI15072
aI15075
aI15080
aI15083
aI15086
aI15094
aI15098
aI15099
aI15100
aI15110
aI15111
aI15112
aI15120
aI15128
aI15137
aI15146
aI15148
aI15150
aI15157
aI15161
aI15167
aI15168
aI15179
aI15180
aI15186
aI15192
aI15197
aI15198
aI15200
aI15208
aI15225
aI15228
aI15232
aI15233
aI15244
aI15250
aI15253
aI15255
aI15259
aI15261
aI15262
aI15279
aI15280
aI15281
aI15285
aI15288
aI15300
aI15304
aI15308
aI15310
aI15324
aI15326
aI15333
aI15338
aI15350
aI15353
aI15360
aI15361
aI15365
aI15367
aI15370
aI15373
aI15383
aI15384
aI15385
aI15392
aI15397
aI15400
aI15402
aI15408
aI15412
aI15441
aI15442
aI15456
aI15457
aI15467
aI15470
aI15472
aI15480
aI15488
aI15489
aI15496
aI15500
aI15503
aI15509
aI15510
aI15513
aI15520
aI15521
aI15525
aI15526
aI15535
aI15537
aI15539
aI15540
aI15549
aI15550
aI15552
aI15554
aI15556
aI15562
aI15570
aI15577
aI15580
aI15584
aI15587
aI15590
aI15594
aI15600
aI15608
aI15614
aI15616
aI15620
aI15625
aI15634
aI15640
aI15644
aI15645
aI15647
aI15667
aI15689
aI15700
aI15702
aI15705
aI15714
aI15717
aI15718
aI15725
aI15729
aI15735
aI15740
aI15745
aI15750
aI15770
aI15774
aI15780
aI15785
aI15786
aI15787
aI15795
aI15800
aI15808
aI15813
aI15815
aI15824
aI15830
aI15834
aI15836
aI15840
aI15846
aI15850
aI15853
aI15876
aI15877
aI15879
aI15880
aI15884
aI15893
aI15895
aI15899
aI15900
aI15901
aI15912
aI15918
aI15928
aI15938
aI15942
aI15952
aI15960
aI15974
aI15975
aI15979
aI15984
aI15993
aI15999
aI16000
aI16008
aI16009
aI16012
aI16016
aI16018
aI16019
aI16020
aI16024
aI16025
aI16033
aI16045
aI16050
aI16051
aI16055
aI16056
aI16057
aI16072
aI16080
aI16100
aI16112
aI16120
aI16125
aI16135
aI16140
aI16161
aI16166
aI16170
aI16174
aI16177
aI16179
aI16180
aI16183
aI16185
aI16190
aI16192
aI16193
aI16196
aI16200
aI16205
aI16206
aI16210
aI16224
aI16225
aI16229
aI16238
aI16240
aI16243
aI16250
aI16253
aI16254
aI16256
aI16259
aI16263
aI16269
aI16272
aI16278
aI16280
aI16286
aI16287
aI16296
aI16307
aI16313
aI16322
aI16325
aI16329
aI16332
aI16334
aI16342
aI16343
aI16352
aI16355
aI16356
aI16370
aI16375
aI16380
aI16381
aI16390
aI16392
aI16394
aI16400
aI16406
aI16408
aI16413
aI16416
aI16432
aI16435
aI16436
aI16440
aI16446
aI16447
aI16456
aI16465
aI16471
aI16478
aI16483
aI16484
aI16487
aI16498
aI16500
aI16506
aI16507
aI16516
aI16518
aI16523
aI16536
aI16548
aI16550
aI16554
aI16557
aI16560
aI16565
aI16595
aI16600
aI16609
aI16617
aI16620
aI16625
aI16627
aI16635
aI16640
aI16648
aI16650
aI16652
aI16658
aI16667
aI16670
aI16671
aI16673
aI16674
aI16680
aI16688
aI16700
aI16710
aI16718
aI16732
aI16736
aI16740
aI16750
aI16754
aI16765
aI16772
aI16779
aI16781
aI16788
aI16791
aI16796
aI16797
aI16800
aI16801
aI16804
aI16818
aI16820
aI16823
aI16825
aI16847
aI16850
aI16852
aI16861
aI16862
aI16863
aI16865
aI16870
aI16874
aI16875
aI16876
aI16880
aI16890
aI16898
aI16900
aI16912
aI16918
aI16920
aI16925
aI16930
aI16934
aI16935
aI16936
aI16940
aI16948
aI16952
aI16953
aI16955
aI16956
aI16971
aI16994
aI16996
aI17000
aI17010
aI17016
aI17017
aI17022
aI17025
aI17032
aI17033
aI17036
aI17040
aI17050
aI17051
aI17053
aI17056
aI17063
aI17064
aI17070
aI17072
aI17074
aI17080
aI17082
aI17085
aI17086
aI17088
aI17089
aI17091
aI17098
aI17100
aI17104
aI17106
aI17118
aI17120
aI17126
aI17130
aI17131
aI17136
aI17139
aI17140
aI17144
aI17148
aI17150
aI17160
aI17161
aI17170
aI17173
aI17187
aI17190
aI17191
aI17194
aI17197
aI17200
aI17201
aI17210
aI17212
aI17220
aI17223
aI17232
aI17240
aI17245
aI17270
aI17272
aI17280
aI17290
aI17299
aI17300
aI17304
aI17309
aI17317
aI17322
aI17338
aI17341
aI17342
aI17343
aI17348
aI17351
aI17352
aI17355
aI17357
aI17366
aI17368
aI17384
aI17387
aI17390
aI17398
aI17399
aI17400
aI17406
aI17409
aI17410
aI17420
aI17426
aI17430
aI17442
aI17450
aI17454
aI17468
aI17485
aI17495
aI17498
aI17500
aI17502
aI17503
aI17504
aI17513
aI17514
aI17515
aI17525
aI17535
aI17538
aI17542
aI17550
aI17552
aI17555
aI17563
aI17575
aI17578
aI17579
aI17586
aI17590
aI17597
aI17600
aI17604
aI17609
aI17610
aI17618
aI17629
aI17638
aI17640
aI17642
aI17651
aI17657
aI17659
aI17680
aI17685
aI17692
aI17730
aI17735
aI17738
aI17750
aI17760
aI17762
aI17767
aI17776
aI17784
aI17785
aI17789
aI17796
aI17800
aI17808
aI17810
aI17820
aI17826
aI17835
aI17836
aI17837
aI17843
aI17845
aI17854
aI17869
aI17872
aI17875
aI17898
aI17900
aI17920
aI17922
aI17928
aI17930
aI17950
aI17964
aI17970
aI17971
aI17980
aI17983
aI17984
aI17987
aI17992
aI17995
aI18000
aI18006
aI18009
aI18012
aI18013
aI18015
aI18040
aI18044
aI18061
aI18095
aI18096
aI18100
aI18103
aI18109
aI18117
aI18119
aI18120
aI18121
aI18126
aI18138
aI18144
aI18147
aI18150
aI18167
aI18175
aI18179
aI18180
aI18188
aI18192
aI18200
aI18206
aI18217
aI18225
aI18239
aI18240
aI18250
aI18252
aI18260
aI18268
aI18269
aI18270
aI18272
aI18278
aI18283
aI18284
aI18300
aI18304
aI18312
aI18328
aI18333
aI18335
aI18337
aI18344
aI18345
aI18366
aI18369
aI18400
aI18401
aI18408
aI18418
aI18425
aI18432
aI18436
aI18440
aI18441
aI18442
aI18450
aI18455
aI18469
aI18472
aI18474
aI18480
aI18482
aI18494
aI18500
aI18503
aI18505
aI18506
aI18517
aI18520
aI18528
aI18533
aI18550
aI18558
aI18559
aI18560
aI18562
aI18568
aI18575
aI18588
aI18592
aI18597
aI18600
aI18605
aI18608
aI18609
aI18610
aI18612
aI18617
aI18627
aI18638
aI18640
aI18642
aI18650
aI18657
aI18659
aI18660
aI18667
aI18670
aI18678
aI18680
aI18690
aI18700
aI18709
aI18720
aI18731
aI18736
aI18750
aI18758
aI18760
aI18768
aI18770
aI18774
aI18783
aI18791
aI18795
aI18800
aI18812
aI18816
aI18824
aI18826
aI18835
aI18844
aI18845
aI18850
aI18875
aI18876
aI18883
aI18886
aI18893
aI18900
aI18910
aI18912
aI18922
aI18928
aI18943
aI18944
aI18950
aI18952
aI18956
aI18970
aI18972
aI18978
aI18980
aI18985
aI18987
aI18988
aI19000
aI19012
aI19025
aI19028
aI19032
aI19033
aI19038
aI19040
aI19050
aI19060
aI19062
aI19076
aI19081
aI19088
aI19092
aI19094
aI19100
aI19109
aI19110
aI19116
aI19123
aI19136
aI19138
aI19142
aI19152
aI19154
aI19156
aI19165
aI19170
aI19178
aI19179
aI19180
aI19188
aI19190
aI19198
aI19200
aI19219
aI19220
aI19232
aI19233
aI19236
aI19239
aI19240
aI19241
aI19242
aI19249
aI19250
aI19252
aI19254
aI19255
aI19267
aI19272
aI19296
aI19300
aI19304
aI19305
aI19306
aI19310
aI19315
aI19320
aI19328
aI19330
aI19331
aI19333
aI19341
aI19344
aI19352
aI19356
aI19361
aI19374
aI19382
aI19400
aI19409
aI19413
aI19418
aI19419
aI19422
aI19429
aI19432
aI19433
aI19445
aI19446
aI19447
aI19448
aI19450
aI19452
aI19459
aI19463
aI19464
aI19466
aI19468
aI19481
aI19484
aI19492
aI19495
aI19496
aI19497
aI19500
aI19501
aI19502
aI19506
aI19510
aI19521
aI19525
aI19527
aI19530
aI19537
aI19542
aI19545
aI19546
aI19552
aI19560
aI19567
aI19570
aI19575
aI19576
aI19594
aI19598
aI19600
aI19609
aI19631
aI19632
aI19640
aI19642
aI19646
aI19650
aI19672
aI19673
aI19679
aI19680
aI19690
aI19692
aI19696
aI19700
aI19728
aI19733
aI19744
aI19750
aI19760
aI19761
aI19764
aI19770
aI19775
aI19783
aI19792
aI19797
aI19800
aI19803
aI19804
aI19806
aI19809
aI19816
aI19820
aI19823
aI19824
aI19830
aI19840
aI19843
aI19845
aI19850
aI19868
aI19869
aI19871
aI19873
aI19879
aI19880
aI19882
aI19888
aI19890
aI19894
aI19898
aI19900
aI19908
aI19910
aI19916
aI19924
aI19927
aI19935
aI19936
aI19938
aI19947
aI19950
aI19953
aI19955
aI19961
aI19965
aI19968
aI19969
aI19980
aI19983
aI20000
aI20003
aI20004
aI20007
aI20008
aI20010
aI20019
aI20020
aI20028
aI20031
aI20034
aI20045
aI20050
aI20065
aI20084
aI20089
aI20092
aI20100
aI20113
aI20114
aI20115
aI20121
aI20124
aI20148
aI20150
aI20152
aI20153
aI20157
aI20167
aI20171
aI20181
aI20184
aI20195
aI20200
aI20202
aI20207
aI20208
aI20213
aI20214
aI20215
aI20216
aI20225
aI20226
aI20230
aI20236
aI20240
aI20242
aI20244
aI20246
aI20250
aI20252
aI20259
aI20267
aI20274
aI20280
aI20281
aI20283
aI20287
aI20300
aI20302
aI20305
aI20315
aI20323
aI20336
aI20346
aI20353
aI20367
aI20368
aI20369
aI20384
aI20387
aI20400
aI20407
aI20412
aI20415
aI20417
aI20431
aI20433
aI20435
aI20439
aI20443
aI20466
aI20478
aI20480
aI20483
aI20486
aI20489
aI20492
aI20499
aI20500
aI20504
aI20508
aI20510
aI20513
aI20514
aI20522
aI20523
aI20525
aI20538
aI20544
aI20550
aI20552
aI20555
aI20561
aI20565
aI20569
aI20570
aI20572
aI20580
aI20585
aI20592
aI20597
aI20600
aI20601
aI20604
aI20608
aI20622
aI20634
aI20641
aI20654
aI20661
aI20664
aI20680
aI20689
aI20696
aI20700
aI20711
aI20715
aI20719
aI20742
aI20746
aI20750
aI20758
aI20760
aI20770
aI20780
aI20788
aI20794
aI20796
aI20800
aI20803
aI20804
aI20805
aI20806
aI20812
aI20813
aI20819
aI20832
aI20840
aI20841
aI20850
aI20868
aI20897
aI20900
aI20904
aI20910
aI20918
aI20932
aI20933
aI20942
aI20947
aI20950
aI20956
aI20958
aI20968
aI20970
aI20975
aI20995
aI21000
aI21002
aI21005
aI21010
aI21016
aI21020
aI21026
aI21030
aI21032
aI21035
aI21038
aI21040
aI21045
aI21050
aI21051
aI21060
aI21067
aI21080
aI21086
aI21095
aI21100
aI21104
aI21112
aI21118
aI21122
aI21123
aI21125
aI21130
aI21132
aI21150
aI21160
aI21167
aI21170
aI21180
aI21188
aI21195
aI21200
aI21205
aI21208
aI21211
aI21216
aI21220
aI21237
aI21240
aI21241
aI21243
aI21244
aI21245
aI21250
aI21252
aI21256
aI21267
aI21274
aI21277
aI21294
aI21296
aI21300
aI21308
aI21320
aI21332
aI21333
aI21341
aI21372
aI21373
aI21383
aI21400
aI21401
aI21404
aI21420
aI21424
aI21436
aI21450
aI21457
aI21478
aI21486
aI21492
aI21500
aI21506
aI21507
aI21510
aI21512
aI21514
aI21515
aI21525
aI21526
aI21529
aI21536
aI21550
aI21568
aI21572
aI21579
aI21583
aI21598
aI21600
aI21606
aI21614
aI21627
aI21632
aI21645
aI21650
aI21659
aI21660
aI21661
aI21665
aI21666
aI21667
aI21679
aI21686
aI21694
aI21697
aI21700
aI21720
aI21723
aI21727
aI21738
aI21750
aI21759
aI21763
aI21770
aI21771
aI21780
aI21798
aI21800
aI21805
aI21806
aI21815
aI21819
aI21824
aI21835
aI21840
aI21841
aI21850
aI21856
aI21866
aI21900
aI21917
aI21923
aI21936
aI21947
aI21948
aI21958
aI21965
aI21970
aI21981
aI21995
aI22000
aI22001
aI22005
aI22010
aI22018
aI22019
aI22031
aI22035
aI22040
aI22047
aI22048
aI22050
aI22055
aI22058
aI22064
aI22080
aI22086
aI22097
aI22100
aI22105
aI22109
aI22110
aI22113
aI22123
aI22126
aI22130
aI22150
aI22152
aI22153
aI22156
aI22165
aI22179
aI22187
aI22190
aI22193
aI22194
aI22195
aI22199
aI22200
aI22204
aI22206
aI22222
aI22225
aI22226
aI22229
aI22237
aI22250
aI22256
aI22269
aI22271
aI22277
aI22298
aI22300
aI22303
aI22305
aI22313
aI22336
aI22344
aI22349
aI22350
aI22356
aI22358
aI22360
aI22363
aI22375
aI22380
aI22384
aI22400
aI22410
aI22445
aI22460
aI22461
aI22469
aI22474
aI22475
aI22479
aI22486
aI22500
aI22502
aI22507
aI22512
aI22515
aI22534
aI22539
aI22540
aI22545
aI22546
aI22550
aI22552
aI22570
aI22571
aI22575
aI22579
aI22600
aI22610
aI22620
aI22627
aI22641
aI22643
aI22647
aI22654
aI22656
aI22661
aI22664
aI22680
aI22682
aI22685
aI22690
aI22700
aI22711
aI22714
aI22727
aI22740
aI22750
aI22752
aI22756
aI22759
aI22765
aI22766
aI22770
aI22789
aI22800
aI22802
aI22812
aI22815
aI22820
aI22823
aI22830
aI22831
aI22850
aI22865
aI22866
aI22867
aI22880
aI22884
aI22887
aI22889
aI22890
aI22900
aI22915
aI22916
aI22927
aI22932
aI22934
aI22936
aI22938
aI22942
aI22950
aI22956
aI22960
aI22967
aI22970
aI22985
aI23000
aI23005
aI23006
aI23007
aI23015
aI23019
aI23025
aI23026
aI23030
aI23037
aI23039
aI23050
aI23064
aI23070
aI23080
aI23082
aI23088
aI23089
aI23097
aI23100
aI23112
aI23120
aI23130
aI23133
aI23137
aI23157
aI23160
aI23164
aI23166
aI23169
aI23170
aI23174
aI23200
aI23205
aI23208
aI23212
aI23217
aI23219
aI23240
aI23242
aI23243
aI23247
aI23250
aI23251
aI23259
aI23263
aI23268
aI23269
aI23271
aI23283
aI23286
aI23296
aI23297
aI23316
aI23333
aI23337
aI23350
aI23353
aI23359
aI23360
aI23368
aI23370
aI23378
aI23383
aI23387
aI23394
aI23395
aI23399
aI23400
aI23405
aI23421
aI23448
aI23450
aI23461
aI23462
aI23465
aI23468
aI23473
aI23476
aI23477
aI23480
aI23500
aI23504
aI23525
aI23550
aI23554
aI23558
aI23560
aI23569
aI23575
aI23578
aI23580
aI23581
aI23600
aI23602
aI23609
aI23610
aI23625
aI23630
aI23631
aI23640
aI23644
aI23660
aI23662
aI23670
aI23675
aI23685
aI23692
aI23700
aI23706
aI23709
aI23712
aI23719
aI23720
aI23729
aI23750
aI23755
aI23760
aI23765
aI23776
aI23777
aI23780
aI23795
aI23800
aI23807
aI23809
aI23810
aI23820
aI23830
aI23834
aI23837
aI23840
aI23850
aI23856
aI23863
aI23865
aI23873
aI23879
aI23882
aI23893
aI23920
aI23926
aI23928
aI23935
aI23950
aI23951
aI23963
aI23967
aI23982
aI23986
aI23999
aI24000
aI24001
aI24003
aI24005
aI24007
aI24010
aI24024
aI24026
aI24030
aI24034
aI24035
aI24041
aI24045
aI24050
aI24060
aI24070
aI24073
aI24074
aI24080
aI24095
aI24096
aI24097
aI24106
aI24110
aI24111
aI24112
aI24113
aI24127
aI24128
aI24136
aI24150
aI24157
aI24159
aI24160
aI24163
aI24176
aI24185
aI24188
aI24200
aI24201
aI24203
aI24210
aI24212
aI24245
aI24250
aI24270
aI24285
aI24311
aI24317
aI24320
aI24325
aI24326
aI24330
aI24336
aI24346
aI24353
aI24361
aI24368
aI24371
aI24375
aI24384
aI24389
aI24395
aI24397
aI24400
aI24420
aI24440
aI24448
aI24455
aI24458
aI24460
aI24466
aI24471
aI24473
aI24474
aI24480
aI24499
aI24500
aI24503
aI24505
aI24507
aI24508
aI24509
aI24510
aI24515
aI24517
aI24518
aI24519
aI24520
aI24541
aI24550
aI24552
aI24557
aI24560
aI24565
aI24566
aI24570
aI24575
aI24581
aI24591
aI24600
aI24603
aI24617
aI24618
aI24623
aI24632
aI24633
aI24639
aI24643
aI24648
aI24656
aI24658
aI24661
aI24665
aI24691
aI24693
aI24700
aI24701
aI24704
aI24709
aI24712
aI24717
aI24720
aI24750
aI24788
aI24790
aI24796
aI24800
aI24801
aI24808
aI24812
aI24820
aI24825
aI24832
aI24836
aI24840
aI24842
aI24845
aI24855
aI24856
aI24860
aI24867
aI24877
aI24879
aI24888
aI24900
aI24910
aI24911
aI24930
aI24938
aI24945
aI24950
aI24951
aI24955
aI24960
aI24970
aI24972
aI24979
aI24984
aI24991
aI24997
aI25000
aI25002
aI25003
aI25009
aI25010
aI25011
aI25015
aI25019
aI25021
aI25022
aI25025
aI25031
aI25040
aI25043
aI25050
aI25060
aI25063
aI25065
aI25078
aI25080
aI25090
aI25097
aI25098
aI25100
aI25108
aI25114
aI25122
aI25125
aI25126
aI25150
aI25160
aI25171
aI25173
aI25180
aI25197
aI25198
aI25200
aI25201
aI25208
aI25213
aI25215
aI25220
aI25241
aI25250
aI25251
aI25254
aI25258
aI25260
aI25272
aI25283
aI25291
aI25300
aI25306
aI25319
aI25333
aI25334
aI25348
aI25359
aI25371
aI25384
aI25385
aI25390
aI25397
aI25400
aI25402
aI25423
aI25441
aI25443
aI25447
aI25460
aI25480
aI25493
aI25500
aI25520
aI25525
aI25528
aI25530
aI25550
aI25558
aI25562
aI25571
aI25575
aI25578
aI25583
aI25584
aI25600
aI25606
aI25620
aI25625
aI25633
aI25642
aI25644
aI25646
aI25650
aI25660
aI25669
aI25676
aI25678
aI25688
aI25694
aI25700
aI25709
aI25731
aI25736
aI25737
aI25738
aI25740
aI25747
aI25769
aI25771
aI25772
aI25774
aI25782
aI25783
aI25787
aI25792
aI25794
aI25796
aI25800
aI25801
aI25806
aI25811
aI25815
aI25835
aI25836
aI25846
aI25852
aI25857
aI25862
aI25863
aI25871
aI25873
aI25883
aI25895
aI25900
aI25922
aI25945
aI25975
aI25983
aI25986
aI25997
aI26000
aI26001
aI26003
aI26004
aI26010
aI26013
aI26018
aI26021
aI26022
aI26025
aI26035
aI26050
aI26061
aI26067
aI26073
aI26076
aI26077
aI26088
aI26090
aI26099
aI26100
aI26115
aI26120
aI26133
aI26152
aI26160
aI26181
aI26195
aI26198
aI26200
aI26203
aI26205
aI26208
aI26216
aI26250
aI26252
aI26260
aI26264
aI26267
aI26272
aI26279
aI26295
aI26300
aI26304
aI26307
aI26312
aI26323
aI26325
aI26333
aI26361
aI26362
aI26367
aI26377
aI26395
aI26400
aI26408
aI26409
aI26436
aI26438
aI26446
aI26450
aI26460
aI26465
aI26475
aI26488
aI26499
aI26500
aI26502
aI26520
aI26528
aI26529
aI26549
aI26550
aI26553
aI26556
aI26559
aI26575
aI26580
aI26587
aI26590
aI26600
aI26604
aI26619
aI26625
aI26630
aI26648
aI26650
aI26660
aI26667
aI26669
aI26682
aI26683
aI26689
aI26693
aI26695
aI26703
aI26718
aI26721
aI26728
aI26730
aI26736
aI26742
aI26750
aI26751
aI26770
aI26780
aI26786
aI26800
aI26810
aI26811
aI26830
aI26832
aI26855
aI26880
aI26882
aI26895
aI26896
aI26900
aI26902
aI26908
aI26910
aI26920
aI26923
aI26927
aI26936
aI26948
aI26968
aI26975
aI26980
aI26991
aI27000
aI27008
aI27010
aI27011
aI27020
aI27040
aI27042
aI27044
aI27065
aI27066
aI27088
aI27090
aI27097
aI27100
aI27103
aI27107
aI27113
aI27125
aI27144
aI27149
aI27150
aI27175
aI27186
aI27187
aI27200
aI27219
aI27227
aI27229
aI27234
aI27243
aI27250
aI27254
aI27255
aI27263
aI27283
aI27290
aI27300
aI27302
aI27307
aI27311
aI27325
aI27331
aI27332
aI27340
aI27343
aI27346
aI27363
aI27380
aI27386
aI27390
aI27394
aI27400
aI27402
aI27403
aI27406
aI27410
aI27413
aI27414
aI27425
aI27442
aI27444
aI27456
aI27477
aI27491
aI27498
aI27500
aI27503
aI27512
aI27513
aI27525
aI27529
aI27530
aI27540
aI27544
aI27546
aI27550
aI27553
aI27555
aI27560
aI27571
aI27573
aI27576
aI27585
aI27593
aI27597
aI27600
aI27604
aI27609
aI27620
aI27625
aI27631
aI27636
aI27640
aI27643
aI27647
aI27650
aI27658
aI27668
aI27678
aI27696
aI27697
aI27698
aI27700
aI27708
aI27713
aI27718
aI27732
aI27741
aI27744
aI27745
aI27750
aI27767
aI27785
aI27789
aI27799
aI27808
aI27823
aI27830
aI27844
aI27850
aI27872
aI27875
aI27888
aI27900
aI27913
aI27920
aI27921
aI27931
aI27935
aI27965
aI27972
aI27979
aI27992
aI27993
aI27997
aI28000
aI28003
aI28006
aI28008
aI28009
aI28011
aI28015
aI28025
aI28032
aI28043
aI28050
aI28070
aI28071
aI28080
aI28084
aI28086
aI28095
aI28100
aI28101
aI28104
aI28105
aI28108
aI28118
aI28122
aI28128
aI28155
aI28160
aI28163
aI28164
aI28171
aI28173
aI28190
aI28200
aI28216
aI28218
aI28223
aI28236
aI28240
aI28243
aI28264
aI28269
aI28275
aI28280
aI28285
aI28287
aI28289
aI28298
aI28299
aI28300
aI28306
aI28322
aI28325
aI28329
aI28330
aI28345
aI28348
aI28358
aI28379
aI28385
aI28387
aI28397
aI28400
aI28410
aI28436
aI28438
aI28440
aI28443
aI28475
aI28490
aI28496
aI28499
aI28500
aI28510
aI28512
aI28517
aI28524
aI28525
aI28534
aI28535
aI28549
aI28564
aI28570
aI28573
aI28578
aI28597
aI28600
aI28626
aI28627
aI28639
aI28650
aI28651
aI28652
aI28674
aI28688
aI28710
aI28721
aI28740
aI28749
aI28750
aI28754
aI28756
aI28758
aI28767
aI28772
aI28777
aI28791
aI28798
aI28800
aI28811
aI28829
aI28833
aI28845
aI28850
aI28851
aI28854
aI28870
aI28871
aI28872
aI28877
aI28880
aI28891
aI28900
aI28902
aI28905
aI28912
aI28924
aI28933
aI28937
aI28939
aI28942
aI28954
aI28961
aI28973
aI28981
aI28983
aI28995
aI29000
aI29001
aI29005
aI29015
aI29018
aI29025
aI29026
aI29035
aI29039
aI29050
aI29058
aI29070
aI29073
aI29074
aI29075
aI29076
aI29077
aI29079
aI29080
aI29083
aI29099
aI29100
aI29101
aI29104
aI29116
aI29120
aI29123
aI29124
aI29125
aI29130
aI29132
aI29134
aI29141
aI29147
aI29150
aI29154
aI29155
aI29158
aI29159
aI29160
aI29176
aI29181
aI29193
aI29195
aI29208
aI29221
aI29224
aI29229
aI29245
aI29248
aI29250
aI29251
aI29257
aI29266
aI29269
aI29280
aI29292
aI29300
aI29304
aI29306
aI29316
aI29320
aI29325
aI29333
aI29337
aI29350
aI29358
aI29360
aI29374
aI29383
aI29384
aI29394
aI29395
aI29398
aI29400
aI29411
aI29412
aI29414
aI29418
aI29425
aI29432
aI29450
aI29453
aI29484
aI29500
aI29526
aI29534
aI29536
aI29556
aI29560
aI29574
aI29600
aI29621
aI29625
aI29626
aI29640
aI29652
aI29653
aI29662
aI29700
aI29714
aI29716
aI29725
aI29728
aI29747
aI29750
aI29752
aI29754
aI29758
aI29761
aI29765
aI29795
aI29799
aI29812
aI29835
aI29842
aI29844
aI29846
aI29848
aI29875
aI29880
aI29883
aI29885
aI29890
aI29899
aI29913
aI29920
aI29952
aI29973
aI29978
aI29980
aI29982
aI29991
aI29994
aI29999
aI30000
aI30002
aI30004
aI30005
aI30006
aI30007
aI30010
aI30011
aI30012
aI30014
aI30016
aI30022
aI30023
aI30024
aI30025
aI30028
aI30030
aI30031
aI30038
aI30040
aI30041
aI30042
aI30044
aI30047
aI30050
aI30051
aI30056
aI30065
aI30075
aI30076
aI30083
aI30089
aI30090
aI30096
aI30100
aI30102
aI30109
aI30112
aI30113
aI30125
aI30130
aI30137
aI30141
aI30144
aI30150
aI30154
aI30155
aI30160
aI30164
aI30172
aI30183
aI30185
aI30186
aI30194
aI30200
aI30218
aI30234
aI30235
aI30238
aI30250
aI30264
aI30266
aI30279
aI30280
aI30285
aI30288
aI30296
aI30301
aI30304
aI30311
aI30325
aI30328
aI30330
aI30334
aI30336
aI30341
aI30348
aI30350
aI30365
aI30367
aI30368
aI30393
aI30400
aI30403
aI30417
aI30420
aI30425
aI30430
aI30440
aI30447
aI30456
aI30459
aI30472
aI30473
aI30475
aI30495
aI30500
aI30504
aI30507
aI30512
aI30518
aI30530
aI30531
aI30538
aI30542
aI30550
aI30559
aI30580
aI30592
aI30600
aI30609
aI30610
aI30622
aI30625
aI30626
aI30637
aI30640
aI30642
aI30646
aI30680
aI30695
aI30700
aI30705
aI30720
aI30725
aI30733
aI30746
aI30750
aI30755
aI30764
aI30765
aI30766
aI30773
aI30775
aI30780
aI30794
aI30800
aI30811
aI30814
aI30815
aI30832
aI30833
aI30836
aI30873
aI30887
aI30900
aI30909
aI30910
aI30916
aI30935
aI30938
aI30944
aI30955
aI30972
aI30980
aI31000
aI31006
aI31015
aI31025
aI31033
aI31035
aI31046
aI31062
aI31069
aI31071
aI31082
aI31085
aI31087
aI31091
aI31100
aI31104
aI31111
aI31117
aI31119
aI31120
aI31123
aI31143
aI31145
aI31150
aI31160
aI31165
aI31170
aI31173
aI31175
aI31187
aI31189
aI31200
aI31202
aI31207
aI31210
aI31221
aI31230
aI31234
aI31250
aI31270
aI31274
aI31278
aI31281
aI31282
aI31300
aI31303
aI31313
aI31328
aI31329
aI31333
aI31345
aI31363
aI31365
aI31375
aI31376
aI31384
aI31390
aI31403
aI31422
aI31442
aI31455
aI31456
aI31460
aI31462
aI31475
aI31481
aI31486
aI31500
aI31514
aI31515
aI31517
aI31525
aI31539
aI31574
aI31590
aI31600
aI31601
aI31603
aI31605
aI31625
aI31627
aI31630
aI31650
aI31660
aI31663
aI31671
aI31680
aI31691
aI31696
aI31699
aI31700
aI31708
aI31712
aI31750
aI31761
aI31765
aI31787
aI31800
aI31817
aI31823
aI31824
aI31826
aI31836
aI31839
aI31840
aI31847
aI31850
aI31851
aI31862
aI31888
aI31903
aI31904
aI31917
aI31919
aI31925
aI31926
aI31928
aI31931
aI31941
aI31944
aI31947
aI31963
aI31970
aI31985
aI31990
aI31997
aI31998
aI32000
aI32002
aI32006
aI32007
aI32010
aI32016
aI32017
aI32024
aI32025
aI32032
aI32035
aI32038
aI32044
aI32050
aI32053
aI32065
aI32074
aI32076
aI32089
aI32100
aI32105
aI32110
aI32118
aI32142
aI32144
aI32149
aI32150
aI32159
aI32169
aI32186
aI32200
aI32203
aI32230
aI32240
aI32242
aI32245
aI32251
aI32260
aI32281
aI32284
aI32285
aI32300
aI32301
aI32302
aI32308
aI32323
aI32326
aI32330
aI32332
aI32333
aI32336
aI32347
aI32360
aI32365
aI32369
aI32377
aI32390
aI32392
aI32400
aI32425
aI32430
aI32442
aI32448
aI32461
aI32470
aI32472
aI32473
aI32487
aI32500
aI32503
aI32507
aI32511
aI32514
aI32518
aI32532
aI32542
aI32548
aI32550
aI32558
aI32559
aI32583
aI32585
aI32600
aI32604
aI32625
aI32630
aI32638
aI32641
aI32643
aI32650
aI32651
aI32660
aI32672
aI32676
aI32677
aI32700
aI32703
aI32709
aI32710
aI32715
aI32718
aI32725
aI32732
aI32735
aI32740
aI32750
aI32760
aI32762
aI32763
aI32770
aI32787
aI32800
aI32816
aI32835
aI32840
aI32843
aI32849
aI32869
aI32892
aI32897
aI32900
aI32913
aI32918
aI32924
aI32950
aI32958
aI32963
aI32971
aI32974
aI32977
aI32981
aI33000
aI33003
aI33008
aI33010
aI33013
aI33015
aI33019
aI33025
aI33045
aI33051
aI33056
aI33060
aI33066
aI33069
aI33073
aI33075
aI33108
aI33111
aI33115
aI33134
aI33136
aI33141
aI33150
aI33153
aI33156
aI33183
aI33200
aI33208
aI33209
aI33214
aI33215
aI33222
aI33227
aI33231
aI33236
aI33250
aI33253
aI33275
aI33280
aI33283
aI33293
aI33300
aI33304
aI33307
aI33315
aI33320
aI33321
aI33322
aI33332
aI33333
aI33337
aI33342
aI33365
aI33366
aI33380
aI33385
aI33399
aI33402
aI33407
aI33426
aI33440
aI33441
aI33443
aI33450
aI33468
aI33470
aI33488
aI33491
aI33497
aI33500
aI33506
aI33509
aI33510
aI33514
aI33526
aI33528
aI33533
aI33537
aI33539
aI33550
aI33552
aI33576
aI33588
aI33600
aI33606
aI33610
aI33623
aI33636
aI33638
aI33652
aI33659
aI33667
aI33683
aI33694
aI33696
aI33700
aI33702
aI33703
aI33710
aI33719
aI33726
aI33749
aI33750
aI33753
aI33755
aI33778
aI33781
aI33783
aI33787
aI33791
aI33798
aI33800
aI33806
aI33850
aI33852
aI33875
aI33887
aI33890
aI33899
aI33900
aI33949
aI33972
aI33981
aI33987
aI34000
aI34003
aI34008
aI34017
aI34026
aI34029
aI34043
aI34045
aI34066
aI34070
aI34080
aI34099
aI34102
aI34103
aI34104
aI34105
aI34116
aI34123
aI34125
aI34130
aI34132
aI34143
aI34150
aI34155
aI34156
aI34163
aI34164
aI34165
aI34171
aI34175
aI34195
aI34199
aI34200
aI34226
aI34243
aI34250
aI34257
aI34267
aI34279
aI34280
aI34283
aI34300
aI34306
aI34320
aI34326
aI34333
aI34334
aI34335
aI34343
aI34345
aI34349
aI34352
aI34359
aI34374
aI34376
aI34398
aI34400
aI34405
aI34407
aI34424
aI34432
aI34441
aI34444
aI34445
aI34450
aI34479
aI34480
aI34488
aI34500
aI34503
aI34512
aI34518
aI34525
aI34528
aI34546
aI34575
aI34581
aI34587
aI34590
aI34600
aI34610
aI34611
aI34633
aI34646
aI34648
aI34650
aI34655
aI34674
aI34683
aI34686
aI34709
aI34713
aI34714
aI34721
aI34731
aI34732
aI34742
aI34745
aI34750
aI34752
aI34765
aI34770
aI34778
aI34783
aI34800
aI34802
aI34815
aI34819
aI34820
aI34822
aI34828
aI34840
aI34841
aI34847
aI34853
aI34858
aI34873
aI34910
aI34944
aI34946
aI34957
aI34970
aI34978
aI34983
aI34986
aI34999
aI35000
aI35006
aI35009
aI35011
aI35013
aI35015
aI35016
aI35024
aI35025
aI35028
aI35030
aI35039
aI35040
aI35042
aI35043
aI35046
aI35050
aI35060
aI35062
aI35066
aI35082
aI35085
aI35087
aI35097
aI35100
aI35104
aI35110
aI35112
aI35125
aI35126
aI35145
aI35150
aI35152
aI35156
aI35157
aI35160
aI35163
aI35167
aI35174
aI35196
aI35200
aI35212
aI35213
aI35214
aI35236
aI35250
aI35256
aI35258
aI35266
aI35277
aI35300
aI35308
aI35309
aI35360
aI35370
aI35371
aI35381
aI35385
aI35388
aI35391
aI35400
aI35410
aI35415
aI35430
aI35434
aI35435
aI35452
aI35480
aI35500
aI35503
aI35518
aI35530
aI35550
aI35558
aI35560
aI35568
aI35575
aI35600
aI35625
aI35630
aI35646
aI35651
aI35664
aI35672
aI35676
aI35686
aI35690
aI35700
aI35706
aI35727
aI35732
aI35735
aI35750
aI35756
aI35768
aI35776
aI35797
aI35798
aI35800
aI35802
aI35810
aI35825
aI35830
aI35832
aI35850
aI35860
aI35873
aI35879
aI35880
aI35930
aI35939
aI35945
aI35960
aI35964
aI35966
aI35970
aI35980
aI35985
aI35986
aI36000
aI36005
aI36006
aI36007
aI36013
aI36014
aI36020
aI36042
aI36046
aI36050
aI36067
aI36068
aI36075
aI36076
aI36078
aI36080
aI36098
aI36100
aI36103
aI36105
aI36110
aI36117
aI36119
aI36126
aI36138
aI36149
aI36150
aI36157
aI36163
aI36173
aI36180
aI36188
aI36200
aI36216
aI36217
aI36227
aI36250
aI36270
aI36299
aI36304
aI36320
aI36332
aI36342
aI36350
aI36354
aI36363
aI36377
aI36400
aI36408
aI36413
aI36415
aI36433
aI36450
aI36452
aI36454
aI36488
aI36500
aI36504
aI36506
aI36516
aI36532
aI36536
aI36558
aI36563
aI36567
aI36578
aI36594
aI36600
aI36647
aI36650
aI36660
aI36682
aI36700
aI36712
aI36727
aI36776
aI36791
aI36796
aI36800
aI36820
aI36826
aI36829
aI36845
aI36852
aI36858
aI36872
aI36891
aI36900
aI36908
aI36913
aI36916
aI36925
aI36932
aI36950
aI36977
aI37000
aI37003
aI37007
aI37009
aI37040
aI37045
aI37046
aI37048
aI37050
aI37056
aI37068
aI37073
aI37074
aI37075
aI37076
aI37081
aI37094
aI37100
aI37106
aI37117
aI37125
aI37128
aI37151
aI37152
aI37172
aI37182
aI37193
aI37200
aI37238
aI37243
aI37250
aI37277
aI37285
aI37299
aI37300
aI37310
aI37327
aI37336
aI37342
aI37359
aI37365
aI37366
aI37370
aI37375
aI37378
aI37386
aI37398
aI37400
aI37410
aI37411
aI37412
aI37427
aI37434
aI37440
aI37441
aI37443
aI37446
aI37463
aI37494
aI37495
aI37500
aI37502
aI37508
aI37510
aI37518
aI37520
aI37530
aI37538
aI37542
aI37550
aI37553
aI37560
aI37576
aI37583
aI37600
aI37623
aI37625
aI37626
aI37630
aI37638
aI37645
aI37647
aI37690
aI37700
aI37710
aI37721
aI37723
aI37730
aI37747
aI37750
aI37760
aI37769
aI37775
aI37778
aI37785
aI37800
aI37801
aI37803
aI37807
aI37814
aI37821
aI37827
aI37835
aI37850
aI37858
aI37868
aI37888
aI37893
aI37900
aI37913
aI37936
aI37940
aI37951
aI37969
aI37997
aI38000
aI38002
aI38010
aI38011
aI38017
aI38025
aI38035
aI38038
aI38044
aI38050
aI38053
aI38059
aI38063
aI38070
aI38071
aI38075
aI38080
aI38081
aI38091
aI38108
aI38110
aI38120
aI38123
aI38129
aI38145
aI38147
aI38149
aI38163
aI38171
aI38175
aI38197
aI38200
aI38202
aI38204
aI38220
aI38237
aI38240
aI38250
aI38259
aI38263
aI38266
aI38269
aI38274
aI38280
aI38282
aI38300
aI38315
aI38325
aI38326
aI38327
aI38349
aI38350
aI38375
aI38383
aI38392
aI38398
aI38400
aI38411
aI38415
aI38442
aI38452
aI38455
aI38457
aI38462
aI38480
aI38496
aI38500
aI38507
aI38523
aI38525
aI38536
aI38550
aI38551
aI38563
aI38570
aI38600
aI38624
aI38625
aI38642
aI38650
aI38652
aI38654
aI38667
aI38672
aI38691
aI38692
aI38700
aI38702
aI38703
aI38709
aI38730
aI38742
aI38750
aI38753
aI38758
aI38770
aI38775
aI38776
aI38788
aI38790
aI38810
aI38813
aI38820
aI38830
aI38836
aI38837
aI38850
aI38853
aI38855
aI38860
aI38867
aI38875
aI38880
aI38885
aI38888
aI38891
aI38900
aI38914
aI38927
aI38935
aI38954
aI39000
aI39001
aI39002
aI39008
aI39010
aI39020
aI39022
aI39031
aI39067
aI39070
aI39073
aI39081
aI39082
aI39095
aI39101
aI39104
aI39105
aI39117
aI39119
aI39121
aI39131
aI39136
aI39182
aI39197
aI39200
aI39226
aI39246
aI39260
aI39265
aI39266
aI39280
aI39283
aI39286
aI39294
aI39322
aI39327
aI39348
aI39349
aI39362
aI39377
aI39380
aI39387
aI39392
aI39400
aI39410
aI39444
aI39447
aI39468
aI39491
aI39495
aI39499
aI39500
aI39511
aI39517
aI39519
aI39520
aI39535
aI39551
aI39570
aI39600
aI39605
aI39663
aI39664
aI39674
aI39680
aI39687
aI39700
aI39729
aI39732
aI39733
aI39750
aI39793
aI39812
aI39813
aI39830
aI39837
aI39838
aI39847
aI39852
aI39869
aI39870
aI39889
aI39899
aI39912
aI39929
aI39942
aI39950
aI39970
aI39988
aI39998
aI40000
aI40008
aI40011
aI40012
aI40013
aI40015
aI40017
aI40020
aI40025
aI40030
aI40031
aI40033
aI40035
aI40039
aI40040
aI40048
aI40050
aI40051
aI40065
aI40066
aI40070
aI40071
aI40080
aI40082
aI40089
aI40100
aI40110
aI40122
aI40128
aI40129
aI40132
aI40136
aI40142
aI40148
aI40149
aI40168
aI40175
aI40198
aI40200
aI40213
aI40215
aI40232
aI40239
aI40250
aI40251
aI40277
aI40287
aI40300
aI40301
aI40327
aI40333
aI40334
aI40338
aI40342
aI40350
aI40360
aI40380
aI40382
aI40400
aI40409
aI40416
aI40446
aI40449
aI40469
aI40470
aI40477
aI40485
aI40488
aI40500
aI40504
aI40510
aI40528
aI40532
aI40538
aI40550
aI40560
aI40572
aI40585
aI40596
aI40600
aI40616
aI40619
aI40620
aI40625
aI40636
aI40637
aI40648
aI40650
aI40654
aI40658
aI40664
aI40697
aI40698
aI40754
aI40761
aI40769
aI40775
aI40779
aI40783
aI40785
aI40800
aI40805
aI40812
aI40825
aI40829
aI40844
aI40900
aI40911
aI40925
aI40944
aI40965
aI40968
aI40979
aI40992
aI40994
aI41000
aI41002
aI41006
aI41010
aI41025
aI41029
aI41032
aI41033
aI41043
aI41081
aI41082
aI41088
aI41100
aI41101
aI41122
aI41141
aI41150
aI41170
aI41172
aI41188
aI41200
aI41205
aI41225
aI41230
aI41232
aI41247
aI41250
aI41262
aI41264
aI41291
aI41305
aI41312
aI41341
aI41347
aI41351
aI41358
aI41361
aI41363
aI41366
aI41371
aI41398
aI41400
aI41406
aI41408
aI41413
aI41457
aI41471
aI41481
aI41486
aI41496
aI41500
aI41502
aI41514
aI41522
aI41530
aI41531
aI41550
aI41551
aI41552
aI41557
aI41561
aI41580
aI41583
aI41591
aI41592
aI41600
aI41613
aI41617
aI41621
aI41634
aI41637
aI41655
aI41662
aI41679
aI41693
aI41728
aI41741
aI41750
aI41761
aI41765
aI41770
aI41787
aI41793
aI41800
aI41807
aI41808
aI41816
aI41817
aI41821
aI41826
aI41827
aI41828
aI41837
aI41839
aI41843
aI41847
aI41850
aI41855
aI41874
aI41880
aI41885
aI41887
aI41912
aI41913
aI41926
aI41953
aI41961
aI41963
aI41995
aI42000
aI42004
aI42006
aI42010
aI42011
aI42015
aI42019
aI42025
aI42035
aI42037
aI42050
aI42072
aI42097
aI42112
aI42114
aI42118
aI42120
aI42123
aI42125
aI42138
aI42150
aI42176
aI42196
aI42200
aI42218
aI42245
aI42250
aI42252
aI42254
aI42263
aI42270
aI42299
aI42300
aI42304
aI42327
aI42333
aI42350
aI42374
aI42392
aI42400
aI42410
aI42417
aI42432
aI42434
aI42441
aI42443
aI42446
aI42453
aI42472
aI42474
aI42500
aI42501
aI42507
aI42510
aI42514
aI42528
aI42534
aI42550
aI42562
aI42569
aI42570
aI42572
aI42580
aI42581
aI42587
aI42592
aI42593
aI42594
aI42595
aI42600
aI42602
aI42606
aI42608
aI42619
aI42623
aI42635
aI42640
aI42650
aI42652
aI42661
aI42667
aI42681
aI42690
aI42702
aI42707
aI42733
aI42745
aI42750
aI42765
aI42771
aI42794
aI42809
aI42815
aI42826
aI42860
aI42863
aI42864
aI42867
aI42872
aI42873
aI42892
aI42894
aI42900
aI42911
aI42931
aI42940
aI42952
aI42955
aI42966
aI42994
aI43000
aI43005
aI43010
aI43011
aI43012
aI43015
aI43021
aI43022
aI43025
aI43045
aI43050
aI43060
aI43065
aI43073
aI43078
aI43092
aI43107
aI43110
aI43118
aI43148
aI43151
aI43168
aI43200
aI43203
aI43212
aI43225
aI43238
aI43241
aI43250
aI43252
aI43255
aI43261
aI43267
aI43286
aI43290
aI43306
aI43310
aI43312
aI43314
aI43320
aI43321
aI43333
aI43340
aI43353
aI43383
aI43422
aI43447
aI43450
aI43458
aI43474
aI43475
aI43488
aI43495
aI43500
aI43518
aI43525
aI43527
aI43537
aI43550
aI43551
aI43554
aI43556
aI43570
aI43583
aI43585
aI43593
aI43600
aI43605
aI43608
aI43616
aI43634
aI43636
aI43641
aI43645
aI43650
aI43653
aI43656
aI43680
aI43681
aI43683
aI43686
aI43708
aI43726
aI43736
aI43740
aI43750
aI43756
aI43764
aI43770
aI43784
aI43792
aI43796
aI43812
aI43813
aI43815
aI43817
aI43818
aI43833
aI43836
aI43850
aI43864
aI43875
aI43877
aI43879
aI43895
aI43900
aI43934
aI43935
aI43942
aI43945
aI43957
aI43964
aI43972
aI43979
aI43985
aI43992
aI43996
aI44000
aI44006
aI44013
aI44021
aI44024
aI44026
aI44027
aI44050
aI44057
aI44083
aI44099
aI44100
aI44105
aI44108
aI44126
aI44133
aI44134
aI44152
aI44180
aI44184
aI44192
aI44194
aI44200
aI44204
aI44207
aI44220
aI44221
aI44231
aI44232
aI44310
aI44325
aI44366
aI44375
aI44383
aI44400
aI44405
aI44406
aI44424
aI44436
aI44438
aI44472
aI44488
aI44491
aI44500
aI44504
aI44515
aI44542
aI44551
aI44554
aI44575
aI44583
aI44586
aI44605
aI44625
aI44627
aI44628
aI44641
aI44650
aI44658
aI44671
aI44682
aI44690
aI44704
aI44720
aI44726
aI44730
aI44737
aI44744
aI44750
aI44758
aI44759
aI44778
aI44787
aI44800
aI44808
aI44813
aI44816
aI44822
aI44828
aI44870
aI44872
aI44881
aI44898
aI44900
aI44903
aI44907
aI44919
aI44928
aI44934
aI44981
aI44983
aI44986
aI44990
aI44998
aI45000
aI45004
aI45005
aI45006
aI45008
aI45009
aI45010
aI45013
aI45023
aI45025
aI45030
aI45038
aI45043
aI45050
aI45056
aI45060
aI45073
aI45094
aI45100
aI45109
aI45113
aI45114
aI45115
aI45120
aI45123
aI45130
aI45135
aI45150
aI45157
aI45173
aI45192
aI45195
aI45200
aI45220
aI45242
aI45250
aI45261
aI45264
aI45288
aI45300
aI45316
aI45325
aI45334
aI45388
aI45400
aI45425
aI45437
aI45477
aI45479
aI45480
aI45485
aI45500
aI45504
aI45510
aI45517
aI45520
aI45523
aI45528
aI45551
aI45552
aI45555
aI45565
aI45598
aI45600
aI45619
aI45650
aI45654
aI45672
aI45680
aI45694
aI45696
aI45700
aI45715
aI45730
aI45750
aI45760
aI45800
aI45810
aI45834
aI45856
aI45860
aI45867
aI45873
aI45882
aI45885
aI45913
aI45931
aI45932
aI45934
aI45935
aI45936
aI45941
aI45943
aI45960
aI45971
aI45974
aI45983
aI45995
aI46000
aI46010
aI46014
aI46024
aI46025
aI46040
aI46042
aI46045
aI46051
aI46057
aI46064
aI46065
aI46069
aI46088
aI46094
aI46100
aI46105
aI46110
aI46115
aI46128
aI46130
aI46135
aI46153
aI46160
aI46167
aI46200
aI46203
aI46207
aI46212
aI46217
aI46250
aI46269
aI46298
aI46300
aI46301
aI46318
aI46350
aI46353
aI46359
aI46382
aI46386
aI46434
aI46435
aI46460
aI46500
aI46509
aI46510
aI46542
aI46548
aI46550
aI46588
aI46592
aI46602
aI46610
aI46624
aI46628
aI46634
aI46636
aI46667
aI46670
aI46676
aI46690
aI46695
aI46700
aI46723
aI46730
aI46750
aI46766
aI46772
aI46800
aI46810
aI46820
aI46823
aI46824
aI46832
aI46839
aI46850
aI46859
aI46868
aI46875
aI46878
aI46899
aI46900
aI46916
aI46925
aI46934
aI46954
aI46956
aI46976
aI46984
aI47000
aI47010
aI47039
aI47046
aI47055
aI47105
aI47138
aI47139
aI47173
aI47190
aI47196
aI47200
aI47205
aI47207
aI47219
aI47240
aI47278
aI47320
aI47360
aI47375
aI47381
aI47384
aI47400
aI47401
aI47456
aI47458
aI47460
aI47486
aI47492
aI47500
aI47506
aI47520
aI47523
aI47528
aI47544
aI47572
aI47575
aI47590
aI47594
aI47600
aI47607
aI47618
aI47622
aI47624
aI47636
aI47656
aI47667
aI47690
aI47692
aI47699
aI47705
aI47715
aI47730
aI47753
aI47757
aI47760
aI47772
aI47774
aI47775
aI47785
aI47810
aI47840
aI47855
aI47893
aI47900
aI47934
aI47940
aI47967
aI47970
aI47975
aI47986
aI47995
aI47998
aI48000
aI48006
aI48010
aI48015
aI48025
aI48040
aI48041
aI48050
aI48052
aI48062
aI48081
aI48094
aI48100
aI48102
aI48108
aI48119
aI48120
aI48127
aI48144
aI48160
aI48171
aI48199
aI48200
aI48205
aI48206
aI48240
aI48250
aI48275
aI48323
aI48347
aI48357
aI48373
aI48378
aI48414
aI48419
aI48433
aI48449
aI48454
aI48459
aI48468
aI48470
aI48500
aI48505
aI48520
aI48525
aI48529
aI48555
aI48557
aI48573
aI48581
aI48586
aI48590
aI48599
aI48610
aI48623
aI48628
aI48640
aI48653
aI48679
aI48697
aI48700
aI48734
aI48745
aI48750
aI48752
aI48755
aI48759
aI48763
aI48773
aI48794
aI48795
aI48800
aI48802
aI48805
aI48807
aI48828
aI48849
aI48861
aI48871
aI48872
aI48875
aI48876
aI48894
aI48924
aI48941
aI48986
aI48994
aI48995
aI48999
aI49000
aI49001
aI49005
aI49013
aI49045
aI49060
aI49081
aI49113
aI49119
aI49122
aI49125
aI49129
aI49159
aI49172
aI49173
aI49180
aI49192
aI49198
aI49215
aI49231
aI49234
aI49235
aI49242
aI49300
aI49345
aI49350
aI49353
aI49369
aI49383
aI49397
aI49400
aI49416
aI49421
aI49434
aI49438
aI49441
aI49469
aI49478
aI49500
aI49509
aI49530
aI49535
aI49540
aI49544
aI49609
aI49613
aI49616
aI49663
aI49670
aI49671
aI49680
aI49697
aI49700
aI49723
aI49725
aI49794
aI49812
aI49816
aI49828
aI49841
aI49846
aI49855
aI49868
aI49877
aI49889
aI49895
aI49900
aI49901
aI49903
aI49913
aI49920
aI49945
aI49960
aI49980
aI49984
aI49986
aI50000
aI50003
aI50008
aI50017
aI50020
aI50023
aI50025
aI50042
aI50048
aI50050
aI50058
aI50064
aI50069
aI50075
aI50078
aI50080
aI50091
aI50100
aI50103
aI50111
aI50112
aI50116
aI50122
aI50123
aI50125
aI50130
aI50137
aI50143
aI50150
aI50158
aI50159
aI50171
aI50174
aI50176
aI50218
aI50220
aI50221
aI50250
aI50254
aI50255
aI50297
aI50300
aI50301
aI50330
aI50334
aI50400
aI50413
aI50439
aI50449
aI50494
aI50500
aI50525
aI50528
aI50540
aI50560
aI50565
aI50583
aI50585
aI50600
aI50608
aI50613
aI50632
aI50650
aI50659
aI50688
aI50700
aI50704
aI50710
aI50733
aI50736
aI50750
aI50765
aI50771
aI50786
aI50800
aI50848
aI50850
aI50856
aI50870
aI50878
aI50887
aI50950
aI50966
aI50975
aI50979
aI50984
aI51000
aI51009
aI51019
aI51022
aI51034
aI51050
aI51063
aI51100
aI51108
aI51116
aI51125
aI51150
aI51171
aI51173
aI51186
aI51188
aI51200
aI51230
aI51231
aI51250
aI51264
aI51289
aI51297
aI51298
aI51300
aI51334
aI51389
aI51400
aI51412
aI51440
aI51464
aI51474
aI51496
aI51500
aI51520
aI51560
aI51571
aI51600
aI51610
aI51625
aI51628
aI51650
aI51671
aI51680
aI51714
aI51715
aI51721
aI51730
aI51737
aI51749
aI51773
aI51786
aI51800
aI51821
aI51826
aI51875
aI51876
aI51896
aI51899
aI51909
aI51913
aI51926
aI51931
aI51940
aI51966
aI51979
aI52000
aI52005
aI52015
aI52021
aI52025
aI52032
aI52039
aI52044
aI52060
aI52070
aI52080
aI52090
aI52095
aI52100
aI52111
aI52123
aI52150
aI52175
aI52194
aI52200
aI52218
aI52226
aI52230
aI52233
aI52247
aI52250
aI52280
aI52283
aI52285
aI52291
aI52300
aI52307
aI52310
aI52315
aI52320
aI52370
aI52371
aI52375
aI52409
aI52427
aI52431
aI52450
aI52479
aI52486
aI52494
aI52500
aI52507
aI52512
aI52518
aI52520
aI52525
aI52529
aI52540
aI52543
aI52545
aI52551
aI52556
aI52563
aI52566
aI52569
aI52575
aI52585
aI52600
aI52605
aI52614
aI52625
aI52632
aI52650
aI52695
aI52700
aI52725
aI52737
aI52739
aI52740
aI52750
aI52765
aI52780
aI52798
aI52801
aI52836
aI52847
aI52850
aI52866
aI52920
aI52934
aI52991
aI52998
aI53000
aI53004
aI53005
aI53009
aI53010
aI53012
aI53019
aI53025
aI53030
aI53034
aI53055
aI53069
aI53075
aI53077
aI53090
aI53098
aI53100
aI53119
aI53150
aI53200
aI53224
aI53225
aI53226
aI53242
aI53248
aI53258
aI53260
aI53266
aI53288
aI53290
aI53298
aI53299
aI53300
aI53302
aI53329
aI53336
aI53349
aI53374
aI53380
aI53400
aI53441
aI53455
aI53459
aI53469
aI53477
aI53479
aI53490
aI53500
aI53515
aI53518
aI53525
aI53537
aI53552
aI53555
aI53562
aI53600
aI53616
aI53620
aI53636
aI53643
aI53657
aI53672
aI53673
aI53692
aI53727
aI53736
aI53750
aI53755
aI53775
aI53816
aI53838
aI53855
aI53881
aI53886
aI53893
aI53933
aI53950
aI53959
aI53997
aI54000
aI54006
aI54008
aI54012
aI54013
aI54014
aI54015
aI54018
aI54020
aI54023
aI54060
aI54066
aI54075
aI54080
aI54081
aI54103
aI54116
aI54132
aI54145
aI54163
aI54188
aI54205
aI54250
aI54280
aI54314
aI54349
aI54351
aI54365
aI54400
aI54416
aI54420
aI54439
aI54500
aI54503
aI54504
aI54508
aI54510
aI54522
aI54535
aI54540
aI54550
aI54563
aI54566
aI54591
aI54593
aI54600
aI54657
aI54670
aI54671
aI54706
aI54724
aI54738
aI54752
aI54762
aI54816
aI54851
aI54870
aI54884
aI54895
aI54896
aI54920
aI54988
aI54990
aI54993
aI54995
aI54999
aI55000
aI55006
aI55010
aI55020
aI55030
aI55045
aI55050
aI55070
aI55072
aI55073
aI55075
aI55080
aI55090
aI55100
aI55132
aI55133
aI55145
aI55146
aI55150
aI55153
aI55177
aI55186
aI55196
aI55200
aI55201
aI55250
aI55325
aI55340
aI55350
aI55352
aI55368
aI55400
aI55413
aI55440
aI55450
aI55452
aI55482
aI55486
aI55500
aI55514
aI55535
aI55582
aI55593
aI55600
aI55625
aI55629
aI55650
aI55803
aI55805
aI55848
aI55860
aI55956
aI55957
aI55993
aI56000
aI56004
aI56020
aI56026
aI56048
aI56050
aI56067
aI56100
aI56105
aI56116
aI56118
aI56139
aI56160
aI56167
aI56199
aI56249
aI56250
aI56271
aI56295
aI56336
aI56344
aI56350
aI56356
aI56357
aI56377
aI56389
aI56392
aI56414
aI56455
aI56490
aI56500
aI56503
aI56525
aI56536
aI56587
aI56618
aI56640
aI56643
aI56656
aI56661
aI56700
aI56800
aI56875
aI56888
aI56892
aI56900
aI56960
aI56985
aI56986
aI56992
aI56996
aI57000
aI57006
aI57008
aI57013
aI57050
aI57053
aI57062
aI57089
aI57102
aI57116
aI57138
aI57156
aI57167
aI57171
aI57195
aI57200
aI57213
aI57217
aI57250
aI57280
aI57350
aI57358
aI57367
aI57378
aI57392
aI57403
aI57416
aI57426
aI57451
aI57452
aI57500
aI57509
aI57554
aI57600
aI57612
aI57639
aI57671
aI57699
aI57700
aI57720
aI57730
aI57739
aI57774
aI57785
aI57800
aI57816
aI57828
aI57836
aI57857
aI57860
aI57907
aI57934
aI57990
aI57995
aI58000
aI58022
aI58045
aI58050
aI58053
aI58060
aI58067
aI58080
aI58088
aI58098
aI58102
aI58122
aI58124
aI58131
aI58146
aI58150
aI58159
aI58200
aI58232
aI58240
aI58250
aI58254
aI58271
aI58298
aI58303
aI58305
aI58309
aI58325
aI58328
aI58369
aI58392
aI58400
aI58413
aI58419
aI58448
aI58454
aI58500
aI58515
aI58548
aI58549
aI58583
aI58592
aI58595
aI58604
aI58623
aI58638
aI58645
aI58649
aI58650
aI58700
aI58707
aI58742
aI58765
aI58792
aI58800
aI58801
aI58870
aI58899
aI58911
aI58934
aI58960
aI59000
aI59020
aI59021
aI59035
aI59050
aI59053
aI59070
aI59072
aI59084
aI59100
aI59131
aI59138
aI59159
aI59175
aI59185
aI59200
aI59207
aI59224
aI59241
aI59250
aI59266
aI59271
aI59274
aI59282
aI59304
aI59316
aI59320
aI59334
aI59336
aI59354
aI59360
aI59368
aI59384
aI59386
aI59448
aI59461
aI59482
aI59498
aI59500
aI59523
aI59541
aI59550
aI59579
aI59600
aI59602
aI59652
aI59676
aI59729
aI59738
aI59739
aI59770
aI59771
aI59776
aI59778
aI59800
aI59842
aI59853
aI59947
aI59952
aI59958
aI59970
aI60000
aI60005
aI60006
aI60008
aI60012
aI60015
aI60016
aI60024
aI60025
aI60026
aI60027
aI60032
aI60040
aI60045
aI60047
aI60048
aI60050
aI60054
aI60072
aI60075
aI60084
aI60090
aI60100
aI60122
aI60131
aI60133
aI60140
aI60149
aI60156
aI60165
aI60166
aI60184
aI60196
aI60199
aI60200
aI60226
aI60231
aI60250
aI60258
aI60298
aI60300
aI60308
aI60320
aI60350
aI60377
aI60400
aI60403
aI60404
aI60408
aI60442
aI60445
aI60477
aI60480
aI60483
aI60500
aI60600
aI60625
aI60627
aI60641
aI60650
aI60655
aI60683
aI60725
aI60726
aI60730
aI60737
aI60773
aI60784
aI60819
aI60847
aI60848
aI60850
aI60870
aI60884
aI60885
aI60900
aI60906
aI60949
aI60950
aI60955
aI61000
aI61013
aI61041
aI61050
aI61061
aI61064
aI61105
aI61125
aI61150
aI61159
aI61194
aI61198
aI61200
aI61216
aI61225
aI61280
aI61300
aI61301
aI61393
aI61500
aI61550
aI61609
aI61648
aI61651
aI61676
aI61719
aI61721
aI61732
aI61741
aI61749
aI61763
aI61770
aI61800
aI61802
aI61825
aI61845
aI61930
aI61940
aI62000
aI62001
aI62009
aI62010
aI62013
aI62023
aI62050
aI62071
aI62088
aI62100
aI62102
aI62150
aI62171
aI62179
aI62188
aI62196
aI62200
aI62251
aI62370
aI62400
aI62467
aI62483
aI62492
aI62500
aI62519
aI62551
aI62552
aI62565
aI62584
aI62591
aI62610
aI62615
aI62624
aI62680
aI62696
aI62700
aI62712
aI62729
aI62756
aI62762
aI62763
aI62772
aI62800
aI62807
aI62901
aI62931
aI62934
aI63000
aI63001
aI63003
aI63025
aI63030
aI63039
aI63041
aI63043
aI63050
aI63082
aI63100
aI63109
aI63144
aI63156
aI63157
aI63176
aI63200
aI63225
aI63238
aI63291
aI63327
aI63333
aI63373
aI63401
aI63421
aI63482
aI63483
aI63485
aI63487
aI63531
aI63535
aI63550
aI63569
aI63576
aI63580
aI63583
aI63600
aI63610
aI63625
aI63643
aI63650
aI63664
aI63668
aI63700
aI63742
aI63750
aI63771
aI63772
aI63796
aI63819
aI63837
aI63883
aI63893
aI63961
aI63962
aI63972
aI64000
aI64022
aI64032
aI64052
aI64075
aI64083
aI64100
aI64120
aI64156
aI64174
aI64183
aI64203
aI64204
aI64245
aI64260
aI64265
aI64272
aI64300
aI64310
aI64375
aI64380
aI64410
aI64438
aI64468
aI64470
aI64500
aI64525
aI64538
aI64590
aI64605
aI64609
aI64627
aI64723
aI64779
aI64821
aI64825
aI64850
aI64881
aI65000
aI65004
aI65008
aI65010
aI65012
aI65013
aI65015
aI65045
aI65050
aI65068
aI65081
aI65131
aI65134
aI65150
aI65186
aI65200
aI65208
aI65210
aI65239
aI65245
aI65270
aI65280
aI65282
aI65300
aI65344
aI65348
aI65349
aI65350
aI65361
aI65400
aI65417
aI65432
aI65478
aI65482
aI65500
aI65511
aI65512
aI65515
aI65567
aI65576
aI65700
aI65706
aI65726
aI65750
aI65752
aI65760
aI65772
aI65780
aI65805
aI65894
aI65946
aI65972
aI65998
aI66000
aI66013
aI66014
aI66027
aI66030
aI66038
aI66063
aI66122
aI66125
aI66140
aI66190
aI66200
aI66250
aI66266
aI66346
aI66365
aI66372
aI66410
aI66435
aI66441
aI66500
aI66518
aI66540
aI66560
aI66572
aI66600
aI66608
aI66612
aI66650
aI66667
aI66722
aI66770
aI66772
aI66841
aI66873
aI66950
aI66967
aI66976
aI67000
aI67010
aI67015
aI67030
aI67038
aI67060
aI67067
aI67103
aI67203
aI67235
aI67251
aI67253
aI67270
aI67271
aI67273
aI67300
aI67303
aI67330
aI67470
aI67496
aI67500
aI67509
aI67520
aI67522
aI67525
aI67584
aI67600
aI67629
aI67639
aI67648
aI67650
aI67667
aI67672
aI67679
aI67680
aI67700
aI67720
aI67750
aI67785
aI67810
aI67824
aI67829
aI67892
aI67900
aI67950
aI67995
aI68000
aI68017
aI68050
aI68067
aI68094
aI68100
aI68105
aI68157
aI68190
aI68248
aI68272
aI68306
aI68360
aI68391
aI68493
aI68500
aI68521
aI68523
aI68555
aI68579
aI68599
aI68607
aI68676
aI68685
aI68738
aI68744
aI68750
aI68825
aI68861
aI68875
aI68910
aI68920
aI68969
aI68986
aI69000
aI69100
aI69147
aI69217
aI69226
aI69229
aI69251
aI69270
aI69300
aI69420
aI69434
aI69448
aI69472
aI69500
aI69507
aI69513
aI69519
aI69539
aI69546
aI69550
aI69638
aI69678
aI69702
aI69745
aI69800
aI69832
aI69850
aI69865
aI69992
aI69993
aI70000
aI70007
aI70013
aI70018
aI70040
aI70047
aI70060
aI70062
aI70065
aI70084
aI70113
aI70125
aI70131
aI70145
aI70157
aI70158
aI70200
aI70203
aI70218
aI70227
aI70242
aI70250
aI70285
aI70300
aI70316
aI70360
aI70370
aI70400
aI70420
aI70424
aI70452
aI70460
aI70471
aI70472
aI70505
aI70519
aI70532
aI70538
aI70551
aI70552
aI70625
aI70700
aI70720
aI70732
aI70750
aI70762
aI70936
aI70974
aI70996
aI71000
aI71030
aI71081
aI71092
aI71133
aI71150
aI71170
aI71200
aI71225
aI71254
aI71293
aI71312
aI71323
aI71326
aI71360
aI71400
aI71436
aI71448
aI71451
aI71485
aI71487
aI71500
aI71534
aI71541
aI71592
aI71594
aI71610
aI71663
aI71676
aI71729
aI71768
aI71825
aI71859
aI71866
aI71945
aI71990
aI72000
aI72005
aI72007
aI72015
aI72020
aI72022
aI72052
aI72054
aI72200
aI72223
aI72300
aI72333
aI72343
aI72345
aI72346
aI72350
aI72500
aI72605
aI72712
aI72773
aI72799
aI72800
aI72820
aI72851
aI72875
aI72970
aI73000
aI73008
aI73025
aI73043
aI73050
aI73079
aI73100
aI73114
aI73116
aI73134
aI73183
aI73184
aI73200
aI73210
aI73250
aI73287
aI73289
aI73313
aI73334
aI73368
aI73383
aI73389
aI73393
aI73403
aI73451
aI73476
aI73483
aI73500
aI73505
aI73513
aI73515
aI73570
aI73580
aI73600
aI73718
aI73768
aI73788
aI73861
aI73888
aI73943
aI73976
aI74000
aI74082
aI74100
aI74111
aI74123
aI74125
aI74135
aI74140
aI74144
aI74172
aI74203
aI74244
aI74245
aI74250
aI74284
aI74300
aI74386
aI74400
aI74447
aI74464
aI74476
aI74500
aI74618
aI74668
aI74719
aI74748
aI74750
aI74760
aI74800
aI74829
aI74946
aI75000
aI75005
aI75060
aI75062
aI75065
aI75078
aI75100
aI75120
aI75130
aI75137
aI75150
aI75179
aI75186
aI75192
aI75208
aI75220
aI75221
aI75241
aI75250
aI75260
aI75267
aI75279
aI75300
aI75352
aI75353
aI75359
aI75400
aI75440
aI75491
aI75561
aI75564
aI75590
aI75600
aI75625
aI75691
aI75763
aI75790
aI75795
aI75811
aI75851
aI75855
aI75869
aI75880
aI75887
aI75960
aI76000
aI76010
aI76064
aI76079
aI76088
aI76118
aI76153
aI76155
aI76163
aI76200
aI76250
aI76293
aI76321
aI76363
aI76375
aI76415
aI76495
aI76500
aI76518
aI76520
aI76523
aI76539
aI76564
aI76583
aI76600
aI76643
aI76676
aI76681
aI76685
aI76692
aI76700
aI76740
aI76743
aI76750
aI76755
aI76800
aI76850
aI76879
aI76911
aI76919
aI76960
aI76967
aI77000
aI77015
aI77140
aI77147
aI77150
aI77186
aI77216
aI77298
aI77417
aI77429
aI77500
aI77503
aI77510
aI77600
aI77618
aI77632
aI77640
aI77645
aI77736
aI77892
aI77894
aI77901
aI77985
aI78000
aI78005
aI78007
aI78010
aI78020
aI78056
aI78057
aI78067
aI78100
aI78133
aI78141
aI78200
aI78247
aI78300
aI78311
aI78312
aI78315
aI78338
aI78400
aI78405
aI78420
aI78424
aI78450
aI78500
aI78521
aI78540
aI78548
aI78650
aI78681
aI78700
aI78741
aI78754
aI78800
aI78839
aI78841
aI78873
aI78901
aI78945
aI79000
aI79039
aI79050
aI79053
aI79132
aI79214
aI79294
aI79318
aI79330
aI79333
aI79382
aI79396
aI79453
aI79465
aI79470
aI79500
aI79524
aI79525
aI79528
aI79544
aI79700
aI79750
aI79771
aI79772
aI79786
aI79798
aI79895
aI79897
aI79936
aI79989
aI79997
aI80000
aI80002
aI80005
aI80016
aI80018
aI80030
aI80050
aI80060
aI80069
aI80075
aI80080
aI80100
aI80200
aI80238
aI80264
aI80299
aI80300
aI80309
aI80400
aI80428
aI80500
aI80501
aI80528
aI80530
aI80549
aI80556
aI80600
aI80604
aI80682
aI80703
aI80755
aI80803
aI80840
aI80857
aI80911
aI80959
aI81000
aI81002
aI81004
aI81014
aI81015
aI81023
aI81059
aI81060
aI81089
aI81147
aI81160
aI81225
aI81250
aI81265
aI81269
aI81290
aI81300
aI81400
aI81432
aI81439
aI81460
aI81500
aI81501
aI81551
aI81599
aI81650
aI81660
aI81752
aI81895
aI81923
aI81945
aI82000
aI82010
aI82033
aI82037
aI82147
aI82206
aI82217
aI82408
aI82500
aI82508
aI82515
aI82536
aI82546
aI82595
aI82600
aI82613
aI82663
aI82695
aI82700
aI82719
aI82770
aI82775
aI82782
aI82840
aI82892
aI82900
aI82940
aI82994
aI83000
aI83044
aI83100
aI83150
aI83200
aI83205
aI83210
aI83291
aI83300
aI83348
aI83458
aI83483
aI83496
aI83500
aI83533
aI83572
aI83600
aI83775
aI83859
aI83900
aI83936
aI83946
aI83966
aI83990
aI84000
aI84015
aI84020
aI84025
aI84038
aI84053
aI84131
aI84204
aI84240
aI84250
aI84251
aI84287
aI84320
aI84380
aI84466
aI84500
aI84609
aI84672
aI84731
aI84770
aI84798
aI84801
aI84811
aI84898
aI84983
aI85000
aI85002
aI85010
aI85013
aI85025
aI85040
aI85090
aI85100
aI85154
aI85200
aI85211
aI85223
aI85236
aI85346
aI85460
aI85472
aI85500
aI85575
aI85659
aI85726
aI85803
aI85910
aI85989
aI86000
aI86050
aI86075
aI86100
aI86110
aI86235
aI86358
aI86400
aI86447
aI86500
aI86612
aI86627
aI86643
aI86673
aI86700
aI86766
aI86798
aI86815
aI86860
aI86876
aI86914
aI87000
aI87005
aI87080
aI87100
aI87111
aI87174
aI87242
aI87249
aI87277
aI87410
aI87420
aI87473
aI87490
aI87500
aI87501
aI87508
aI87526
aI87542
aI87581
aI87631
aI87651
aI87750
aI87752
aI87794
aI87874
aI88000
aI88050
aI88113
aI88141
aI88162
aI88200
aI88263
aI88495
aI88498
aI88500
aI88504
aI88611
aI88695
aI88836
aI88863
aI88886
aI88899
aI89000
aI89012
aI89129
aI89166
aI89225
aI89235
aI89250
aI89294
aI89332
aI89475
aI89485
aI89500
aI89745
aI90000
aI90002
aI90004
aI90012
aI90049
aI90072
aI90086
aI90100
aI90120
aI90125
aI90129
aI90144
aI90150
aI90163
aI90192
aI90200
aI90210
aI90222
aI90223
aI90312
aI90500
aI90545
aI90560
aI90670
aI90701
aI90707
aI90725
aI90750
aI90752
aI90927
aI90967
aI90994
aI91000
aI91037
aI91155
aI91200
aI91244
aI91259
aI91271
aI91273
aI91299
aI91310
aI91334
aI91347
aI91400
aI91405
aI91500
aI91526
aI91540
aI91567
aI91677
aI91728
aI91836
aI91875
aI91934
aI92000
aI92001
aI92012
aI92050
aI92243
aI92270
aI92297
aI92311
aI92346
aI92435
aI92436
aI92448
aI92500
aI92778
aI92850
aI92945
aI93000
aI93100
aI93252
aI93268
aI93284
aI93300
aI93308
aI93355
aI93390
aI93400
aI93500
aI93600
aI93650
aI93660
aI93695
aI93708
aI93730
aI93750
aI93778
aI93845
aI93849
aI93889
aI94000
aI94082
aI94123
aI94150
aI94200
aI94220
aI94226
aI94453
aI94500
aI94557
aI94607
aI94906
aI94956
aI94983
aI94994
aI94995
aI94999
aI95000
aI95017
aI95031
aI95060
aI95503
aI95526
aI95572
aI95670
aI95686
aI95875
aI95950
aI96000
aI96026
aI96058
aI96200
aI96239
aI96268
aI96280
aI96388
aI96482
aI96700
aI96713
aI96956
aI96984
aI97089
aI97136
aI97138
aI97321
aI97334
aI97500
aI97622
aI97650
aI97800
aI98000
aI98051
aI98076
aI98200
aI98369
aI98389
aI98409
aI98410
aI98488
aI98500
aI98511
aI98541
aI98625
aI98800
aI98908
aI99000
aI99013
aI99023
aI99030
aI99099
aI99117
aI99350
aI99400
aI99498
aI99500
aI99510
aI99515
aI99661
aI99826
aI99863
aI99950
aI99962
aI99996
aI100000
aI100001
aI100006
aI100010
aI100018
aI100034
aI100055
aI100059
aI100065
aI100066
aI100070
aI100100
aI100140
aI100150
aI100200
aI100250
aI100301
aI100400
aI100410
aI100434
aI100447
aI100472
aI100500
aI100506
aI100510
aI100520
aI100544
aI100613
aI100628
aI100650
aI100700
aI100720
aI100724
aI100749
aI100750
aI100800
aI100836
aI100851
aI100914
aI100965
aI100975
aI101000
aI101025
aI101080
aI101139
aI101188
aI101250
aI101259
aI101351
aI101382
aI101500
aI101600
aI101673
aI101722
aI101750
aI101824
aI101875
aI101991
aI102000
aI102008
aI102017
aI102200
aI102207
aI102273
aI102300
aI102436
aI102469
aI102506
aI102742
aI102747
aI102750
aI102860
aI102983
aI103000
aI103084
aI103125
aI103152
aI103189
aI103192
aI103276
aI103308
aI103372
aI103419
aI103453
aI103472
aI103502
aI103508
aI103513
aI103543
aI103681
aI103692
aI103768
aI103841
aI103854
aI103856
aI103873
aI103995
aI104000
aI104008
aI104025
aI104032
aI104036
aI104135
aI104146
aI104206
aI104219
aI104427
aI104500
aI104583
aI104651
aI104700
aI104842
aI104988
aI105000
aI105003
aI105100
aI105155
aI105250
aI105413
aI105451
aI105554
aI105598
aI105775
aI105803
aI105898
aI105986
aI105988
aI106000
aI106017
aI106239
aI106257
aI106262
aI106302
aI106400
aI106510
aI106587
aI106803
aI106805
aI106933
aI107000
aI107050
aI107068
aI107241
aI107429
aI107500
aI107510
aI107667
aI107727
aI108000
aI108012
aI108033
aI108050
aI108350
aI108526
aI108671
aI108723
aI108861
aI108999
aI109000
aI109062
aI109135
aI109498
aI109669
aI110523
aI110613
aI110766
aI110832
aI111222
aI111400
aI111658
aI111855
aI111993
aI112416
aI112643
aI112824
aI112873
aI112959
aI113274
aI113632
aI114141
aI115346
aI115524
aI116766
aI116941
aI117193
aI117281
aI117286
aI117497
aI117500
aI117638
aI117840
aI117883
aI118163
aI118230
aI119599
aI119777
aI120030
aI120181
aI120579
aI121137
aI121453
aI121750
aI121751
aI121783
aI122677
aI122794
aI122893
aI123361
aI123663
aI124095
aI124380
aI124670
aI124780
aI125001
aI125433
aI126026
aI126276
aI126650
aI126685
aI127323
aI127374
aI127379
aI127825
aI127895
aI127910
aI128297
aI128957
aI129005
aI129265
aI129316
aI129420
aI129453
aI129599
aI129840
aI129947
aI130027
aI130196
aI130338
aI130354
aI130629
aI130805
aI130966
aI131212
aI131483
aI131544
aI131845
aI132043
aI132483
aI132533
aI132760
aI132877
aI133257
aI133483
aI134365
aI134523
aI134866
aI134987
aI135033
aI135189
aI135892
aI136437
aI137480
aI137894
aI139868
aI140258
aI140993
aI141000
aI141895
aI142218
aI143048
aI143086
aI143909
aI144194
aI144546
aI144590
aI144771
aI145489
aI145498
aI145810
aI145922
aI147308
aI147312
aI148279
aI148548
aI148576
aI148605
aI148941
aI149125
aI149361
aI150033
aI150065
aI151224
aI151365
aI151385
aI151699
aI151822
aI151857
aI152461
aI152498
aI153320
aI154473
aI154528
aI154644
aI155041
aI155668
aI156139
aI157061
aI157492
aI157713
aI158947
aI158994
aI159539
aI159965
aI160425
aI162562
aI162616
aI165575
aI166624
aI168613
aI169409
aI171262
aI174417
aI176761
aI176839
aI180045
aI181088
aI182747
aI182836
aI187748
aI193623
aI194087
aI202380
aI206221
aI210722
a.